
bufbomb:     file format elf32-i386


Disassembly of section .init:

00000f74 <_init>:
 f74:	53                   	push   %ebx
 f75:	83 ec 08             	sub    $0x8,%esp
 f78:	e8 e3 02 00 00       	call   1260 <__x86.get_pc_thunk.bx>
 f7d:	81 c3 bf 4f 00 00    	add    $0x4fbf,%ebx
 f83:	8b 83 b0 00 00 00    	mov    0xb0(%ebx),%eax
 f89:	85 c0                	test   %eax,%eax
 f8b:	74 05                	je     f92 <_init+0x1e>
 f8d:	e8 86 02 00 00       	call   1218 <__gmon_start__@plt>
 f92:	83 c4 08             	add    $0x8,%esp
 f95:	5b                   	pop    %ebx
 f96:	c3                   	ret    

Disassembly of section .plt:

00000fa0 <.plt>:
     fa0:	ff b3 04 00 00 00    	pushl  0x4(%ebx)
     fa6:	ff a3 08 00 00 00    	jmp    *0x8(%ebx)
     fac:	00 00                	add    %al,(%eax)
	...

00000fb0 <strcmp@plt>:
     fb0:	ff a3 0c 00 00 00    	jmp    *0xc(%ebx)
     fb6:	68 00 00 00 00       	push   $0x0
     fbb:	e9 e0 ff ff ff       	jmp    fa0 <.plt>

00000fc0 <read@plt>:
     fc0:	ff a3 10 00 00 00    	jmp    *0x10(%ebx)
     fc6:	68 08 00 00 00       	push   $0x8
     fcb:	e9 d0 ff ff ff       	jmp    fa0 <.plt>

00000fd0 <srandom@plt>:
     fd0:	ff a3 14 00 00 00    	jmp    *0x14(%ebx)
     fd6:	68 10 00 00 00       	push   $0x10
     fdb:	e9 c0 ff ff ff       	jmp    fa0 <.plt>

00000fe0 <printf@plt>:
     fe0:	ff a3 18 00 00 00    	jmp    *0x18(%ebx)
     fe6:	68 18 00 00 00       	push   $0x18
     feb:	e9 b0 ff ff ff       	jmp    fa0 <.plt>

00000ff0 <strdup@plt>:
     ff0:	ff a3 1c 00 00 00    	jmp    *0x1c(%ebx)
     ff6:	68 20 00 00 00       	push   $0x20
     ffb:	e9 a0 ff ff ff       	jmp    fa0 <.plt>

00001000 <memcpy@plt>:
    1000:	ff a3 20 00 00 00    	jmp    *0x20(%ebx)
    1006:	68 28 00 00 00       	push   $0x28
    100b:	e9 90 ff ff ff       	jmp    fa0 <.plt>

00001010 <bzero@plt>:
    1010:	ff a3 24 00 00 00    	jmp    *0x24(%ebx)
    1016:	68 30 00 00 00       	push   $0x30
    101b:	e9 80 ff ff ff       	jmp    fa0 <.plt>

00001020 <signal@plt>:
    1020:	ff a3 28 00 00 00    	jmp    *0x28(%ebx)
    1026:	68 38 00 00 00       	push   $0x38
    102b:	e9 70 ff ff ff       	jmp    fa0 <.plt>

00001030 <alarm@plt>:
    1030:	ff a3 2c 00 00 00    	jmp    *0x2c(%ebx)
    1036:	68 40 00 00 00       	push   $0x40
    103b:	e9 60 ff ff ff       	jmp    fa0 <.plt>

00001040 <__stack_chk_fail@plt>:
    1040:	ff a3 30 00 00 00    	jmp    *0x30(%ebx)
    1046:	68 48 00 00 00       	push   $0x48
    104b:	e9 50 ff ff ff       	jmp    fa0 <.plt>

00001050 <_IO_getc@plt>:
    1050:	ff a3 34 00 00 00    	jmp    *0x34(%ebx)
    1056:	68 50 00 00 00       	push   $0x50
    105b:	e9 40 ff ff ff       	jmp    fa0 <.plt>

00001060 <htons@plt>:
    1060:	ff a3 38 00 00 00    	jmp    *0x38(%ebx)
    1066:	68 58 00 00 00       	push   $0x58
    106b:	e9 30 ff ff ff       	jmp    fa0 <.plt>

00001070 <fwrite@plt>:
    1070:	ff a3 3c 00 00 00    	jmp    *0x3c(%ebx)
    1076:	68 60 00 00 00       	push   $0x60
    107b:	e9 20 ff ff ff       	jmp    fa0 <.plt>

00001080 <bcopy@plt>:
    1080:	ff a3 40 00 00 00    	jmp    *0x40(%ebx)
    1086:	68 68 00 00 00       	push   $0x68
    108b:	e9 10 ff ff ff       	jmp    fa0 <.plt>

00001090 <strcpy@plt>:
    1090:	ff a3 44 00 00 00    	jmp    *0x44(%ebx)
    1096:	68 70 00 00 00       	push   $0x70
    109b:	e9 00 ff ff ff       	jmp    fa0 <.plt>

000010a0 <getpid@plt>:
    10a0:	ff a3 48 00 00 00    	jmp    *0x48(%ebx)
    10a6:	68 78 00 00 00       	push   $0x78
    10ab:	e9 f0 fe ff ff       	jmp    fa0 <.plt>

000010b0 <gethostname@plt>:
    10b0:	ff a3 4c 00 00 00    	jmp    *0x4c(%ebx)
    10b6:	68 80 00 00 00       	push   $0x80
    10bb:	e9 e0 fe ff ff       	jmp    fa0 <.plt>

000010c0 <puts@plt>:
    10c0:	ff a3 50 00 00 00    	jmp    *0x50(%ebx)
    10c6:	68 88 00 00 00       	push   $0x88
    10cb:	e9 d0 fe ff ff       	jmp    fa0 <.plt>

000010d0 <exit@plt>:
    10d0:	ff a3 54 00 00 00    	jmp    *0x54(%ebx)
    10d6:	68 90 00 00 00       	push   $0x90
    10db:	e9 c0 fe ff ff       	jmp    fa0 <.plt>

000010e0 <srand@plt>:
    10e0:	ff a3 58 00 00 00    	jmp    *0x58(%ebx)
    10e6:	68 98 00 00 00       	push   $0x98
    10eb:	e9 b0 fe ff ff       	jmp    fa0 <.plt>

000010f0 <mmap@plt>:
    10f0:	ff a3 5c 00 00 00    	jmp    *0x5c(%ebx)
    10f6:	68 a0 00 00 00       	push   $0xa0
    10fb:	e9 a0 fe ff ff       	jmp    fa0 <.plt>

00001100 <strlen@plt>:
    1100:	ff a3 60 00 00 00    	jmp    *0x60(%ebx)
    1106:	68 a8 00 00 00       	push   $0xa8
    110b:	e9 90 fe ff ff       	jmp    fa0 <.plt>

00001110 <__libc_start_main@plt>:
    1110:	ff a3 64 00 00 00    	jmp    *0x64(%ebx)
    1116:	68 b0 00 00 00       	push   $0xb0
    111b:	e9 80 fe ff ff       	jmp    fa0 <.plt>

00001120 <write@plt>:
    1120:	ff a3 68 00 00 00    	jmp    *0x68(%ebx)
    1126:	68 b8 00 00 00       	push   $0xb8
    112b:	e9 70 fe ff ff       	jmp    fa0 <.plt>

00001130 <getopt@plt>:
    1130:	ff a3 6c 00 00 00    	jmp    *0x6c(%ebx)
    1136:	68 c0 00 00 00       	push   $0xc0
    113b:	e9 60 fe ff ff       	jmp    fa0 <.plt>

00001140 <strcasecmp@plt>:
    1140:	ff a3 70 00 00 00    	jmp    *0x70(%ebx)
    1146:	68 c8 00 00 00       	push   $0xc8
    114b:	e9 50 fe ff ff       	jmp    fa0 <.plt>

00001150 <__isoc99_sscanf@plt>:
    1150:	ff a3 74 00 00 00    	jmp    *0x74(%ebx)
    1156:	68 d0 00 00 00       	push   $0xd0
    115b:	e9 40 fe ff ff       	jmp    fa0 <.plt>

00001160 <memset@plt>:
    1160:	ff a3 78 00 00 00    	jmp    *0x78(%ebx)
    1166:	68 d8 00 00 00       	push   $0xd8
    116b:	e9 30 fe ff ff       	jmp    fa0 <.plt>

00001170 <__errno_location@plt>:
    1170:	ff a3 7c 00 00 00    	jmp    *0x7c(%ebx)
    1176:	68 e0 00 00 00       	push   $0xe0
    117b:	e9 20 fe ff ff       	jmp    fa0 <.plt>

00001180 <rand@plt>:
    1180:	ff a3 80 00 00 00    	jmp    *0x80(%ebx)
    1186:	68 e8 00 00 00       	push   $0xe8
    118b:	e9 10 fe ff ff       	jmp    fa0 <.plt>

00001190 <munmap@plt>:
    1190:	ff a3 84 00 00 00    	jmp    *0x84(%ebx)
    1196:	68 f0 00 00 00       	push   $0xf0
    119b:	e9 00 fe ff ff       	jmp    fa0 <.plt>

000011a0 <sprintf@plt>:
    11a0:	ff a3 88 00 00 00    	jmp    *0x88(%ebx)
    11a6:	68 f8 00 00 00       	push   $0xf8
    11ab:	e9 f0 fd ff ff       	jmp    fa0 <.plt>

000011b0 <socket@plt>:
    11b0:	ff a3 8c 00 00 00    	jmp    *0x8c(%ebx)
    11b6:	68 00 01 00 00       	push   $0x100
    11bb:	e9 e0 fd ff ff       	jmp    fa0 <.plt>

000011c0 <random@plt>:
    11c0:	ff a3 90 00 00 00    	jmp    *0x90(%ebx)
    11c6:	68 08 01 00 00       	push   $0x108
    11cb:	e9 d0 fd ff ff       	jmp    fa0 <.plt>

000011d0 <gethostbyname@plt>:
    11d0:	ff a3 94 00 00 00    	jmp    *0x94(%ebx)
    11d6:	68 10 01 00 00       	push   $0x110
    11db:	e9 c0 fd ff ff       	jmp    fa0 <.plt>

000011e0 <connect@plt>:
    11e0:	ff a3 98 00 00 00    	jmp    *0x98(%ebx)
    11e6:	68 18 01 00 00       	push   $0x118
    11eb:	e9 b0 fd ff ff       	jmp    fa0 <.plt>

000011f0 <close@plt>:
    11f0:	ff a3 9c 00 00 00    	jmp    *0x9c(%ebx)
    11f6:	68 20 01 00 00       	push   $0x120
    11fb:	e9 a0 fd ff ff       	jmp    fa0 <.plt>

00001200 <calloc@plt>:
    1200:	ff a3 a0 00 00 00    	jmp    *0xa0(%ebx)
    1206:	68 28 01 00 00       	push   $0x128
    120b:	e9 90 fd ff ff       	jmp    fa0 <.plt>

Disassembly of section .plt.got:

00001210 <__cxa_finalize@plt>:
    1210:	ff a3 ac 00 00 00    	jmp    *0xac(%ebx)
    1216:	66 90                	xchg   %ax,%ax

00001218 <__gmon_start__@plt>:
    1218:	ff a3 b0 00 00 00    	jmp    *0xb0(%ebx)
    121e:	66 90                	xchg   %ax,%ax

Disassembly of section .text:

00001220 <_start>:
    1220:	31 ed                	xor    %ebp,%ebp
    1222:	5e                   	pop    %esi
    1223:	89 e1                	mov    %esp,%ecx
    1225:	83 e4 f0             	and    $0xfffffff0,%esp
    1228:	50                   	push   %eax
    1229:	54                   	push   %esp
    122a:	52                   	push   %edx
    122b:	e8 22 00 00 00       	call   1252 <_start+0x32>
    1230:	81 c3 0c 4d 00 00    	add    $0x4d0c,%ebx
    1236:	8d 83 f4 cf ff ff    	lea    -0x300c(%ebx),%eax
    123c:	50                   	push   %eax
    123d:	8d 83 94 cf ff ff    	lea    -0x306c(%ebx),%eax
    1243:	50                   	push   %eax
    1244:	51                   	push   %ecx
    1245:	56                   	push   %esi
    1246:	ff b3 b8 00 00 00    	pushl  0xb8(%ebx)
    124c:	e8 bf fe ff ff       	call   1110 <__libc_start_main@plt>
    1251:	f4                   	hlt    
    1252:	8b 1c 24             	mov    (%esp),%ebx
    1255:	c3                   	ret    
    1256:	66 90                	xchg   %ax,%ax
    1258:	66 90                	xchg   %ax,%ax
    125a:	66 90                	xchg   %ax,%ax
    125c:	66 90                	xchg   %ax,%ax
    125e:	66 90                	xchg   %ax,%ax

00001260 <__x86.get_pc_thunk.bx>:
    1260:	8b 1c 24             	mov    (%esp),%ebx
    1263:	c3                   	ret    
    1264:	66 90                	xchg   %ax,%ax
    1266:	66 90                	xchg   %ax,%ax
    1268:	66 90                	xchg   %ax,%ax
    126a:	66 90                	xchg   %ax,%ax
    126c:	66 90                	xchg   %ax,%ax
    126e:	66 90                	xchg   %ax,%ax

00001270 <deregister_tm_clones>:
    1270:	e8 e4 00 00 00       	call   1359 <__x86.get_pc_thunk.dx>
    1275:	81 c2 c7 4c 00 00    	add    $0x4cc7,%edx
    127b:	8d 8a 04 41 00 00    	lea    0x4104(%edx),%ecx
    1281:	8d 82 04 41 00 00    	lea    0x4104(%edx),%eax
    1287:	39 c8                	cmp    %ecx,%eax
    1289:	74 1d                	je     12a8 <deregister_tm_clones+0x38>
    128b:	8b 82 a4 00 00 00    	mov    0xa4(%edx),%eax
    1291:	85 c0                	test   %eax,%eax
    1293:	74 13                	je     12a8 <deregister_tm_clones+0x38>
    1295:	55                   	push   %ebp
    1296:	89 e5                	mov    %esp,%ebp
    1298:	83 ec 14             	sub    $0x14,%esp
    129b:	51                   	push   %ecx
    129c:	ff d0                	call   *%eax
    129e:	83 c4 10             	add    $0x10,%esp
    12a1:	c9                   	leave  
    12a2:	c3                   	ret    
    12a3:	90                   	nop
    12a4:	8d 74 26 00          	lea    0x0(%esi,%eiz,1),%esi
    12a8:	f3 c3                	repz ret 
    12aa:	8d b6 00 00 00 00    	lea    0x0(%esi),%esi

000012b0 <register_tm_clones>:
    12b0:	e8 a4 00 00 00       	call   1359 <__x86.get_pc_thunk.dx>
    12b5:	81 c2 87 4c 00 00    	add    $0x4c87,%edx
    12bb:	55                   	push   %ebp
    12bc:	8d 8a 04 41 00 00    	lea    0x4104(%edx),%ecx
    12c2:	8d 82 04 41 00 00    	lea    0x4104(%edx),%eax
    12c8:	29 c8                	sub    %ecx,%eax
    12ca:	89 e5                	mov    %esp,%ebp
    12cc:	53                   	push   %ebx
    12cd:	c1 f8 02             	sar    $0x2,%eax
    12d0:	89 c3                	mov    %eax,%ebx
    12d2:	83 ec 04             	sub    $0x4,%esp
    12d5:	c1 eb 1f             	shr    $0x1f,%ebx
    12d8:	01 d8                	add    %ebx,%eax
    12da:	d1 f8                	sar    %eax
    12dc:	74 14                	je     12f2 <register_tm_clones+0x42>
    12de:	8b 92 bc 00 00 00    	mov    0xbc(%edx),%edx
    12e4:	85 d2                	test   %edx,%edx
    12e6:	74 0a                	je     12f2 <register_tm_clones+0x42>
    12e8:	83 ec 08             	sub    $0x8,%esp
    12eb:	50                   	push   %eax
    12ec:	51                   	push   %ecx
    12ed:	ff d2                	call   *%edx
    12ef:	83 c4 10             	add    $0x10,%esp
    12f2:	8b 5d fc             	mov    -0x4(%ebp),%ebx
    12f5:	c9                   	leave  
    12f6:	c3                   	ret    
    12f7:	89 f6                	mov    %esi,%esi
    12f9:	8d bc 27 00 00 00 00 	lea    0x0(%edi,%eiz,1),%edi

00001300 <__do_global_dtors_aux>:
    1300:	55                   	push   %ebp
    1301:	89 e5                	mov    %esp,%ebp
    1303:	53                   	push   %ebx
    1304:	e8 57 ff ff ff       	call   1260 <__x86.get_pc_thunk.bx>
    1309:	81 c3 33 4c 00 00    	add    $0x4c33,%ebx
    130f:	83 ec 04             	sub    $0x4,%esp
    1312:	80 bb 04 41 00 00 00 	cmpb   $0x0,0x4104(%ebx)
    1319:	75 27                	jne    1342 <__do_global_dtors_aux+0x42>
    131b:	8b 83 ac 00 00 00    	mov    0xac(%ebx),%eax
    1321:	85 c0                	test   %eax,%eax
    1323:	74 11                	je     1336 <__do_global_dtors_aux+0x36>
    1325:	83 ec 0c             	sub    $0xc,%esp
    1328:	ff b3 c8 00 00 00    	pushl  0xc8(%ebx)
    132e:	e8 dd fe ff ff       	call   1210 <__cxa_finalize@plt>
    1333:	83 c4 10             	add    $0x10,%esp
    1336:	e8 35 ff ff ff       	call   1270 <deregister_tm_clones>
    133b:	c6 83 04 41 00 00 01 	movb   $0x1,0x4104(%ebx)
    1342:	8b 5d fc             	mov    -0x4(%ebp),%ebx
    1345:	c9                   	leave  
    1346:	c3                   	ret    
    1347:	89 f6                	mov    %esi,%esi
    1349:	8d bc 27 00 00 00 00 	lea    0x0(%edi,%eiz,1),%edi

00001350 <frame_dummy>:
    1350:	55                   	push   %ebp
    1351:	89 e5                	mov    %esp,%ebp
    1353:	5d                   	pop    %ebp
    1354:	e9 57 ff ff ff       	jmp    12b0 <register_tm_clones>

00001359 <__x86.get_pc_thunk.dx>:
    1359:	8b 14 24             	mov    (%esp),%edx
    135c:	c3                   	ret    

0000135d <smoke>:
    135d:	55                   	push   %ebp
    135e:	89 e5                	mov    %esp,%ebp
    1360:	53                   	push   %ebx
    1361:	83 ec 04             	sub    $0x4,%esp
    1364:	e8 f7 fe ff ff       	call   1260 <__x86.get_pc_thunk.bx>
    1369:	81 c3 d3 4b 00 00    	add    $0x4bd3,%ebx
    136f:	83 ec 0c             	sub    $0xc,%esp
    1372:	8d 83 34 d0 ff ff    	lea    -0x2fcc(%ebx),%eax
    1378:	50                   	push   %eax
    1379:	e8 42 fd ff ff       	call   10c0 <puts@plt>
    137e:	83 c4 10             	add    $0x10,%esp
    1381:	83 ec 0c             	sub    $0xc,%esp
    1384:	6a 00                	push   $0x0
    1386:	e8 cc 0a 00 00       	call   1e57 <validate>
    138b:	83 c4 10             	add    $0x10,%esp
    138e:	83 ec 0c             	sub    $0xc,%esp
    1391:	6a 00                	push   $0x0
    1393:	e8 38 fd ff ff       	call   10d0 <exit@plt>

00001398 <fizz>:
    1398:	55                   	push   %ebp
    1399:	89 e5                	mov    %esp,%ebp
    139b:	53                   	push   %ebx
    139c:	83 ec 04             	sub    $0x4,%esp
    139f:	e8 bc fe ff ff       	call   1260 <__x86.get_pc_thunk.bx>
    13a4:	81 c3 98 4b 00 00    	add    $0x4b98,%ebx
    13aa:	8b 55 08             	mov    0x8(%ebp),%edx
    13ad:	8b 83 18 41 00 00    	mov    0x4118(%ebx),%eax
    13b3:	39 c2                	cmp    %eax,%edx
    13b5:	75 24                	jne    13db <fizz+0x43>
    13b7:	83 ec 08             	sub    $0x8,%esp
    13ba:	ff 75 08             	pushl  0x8(%ebp)
    13bd:	8d 83 4f d0 ff ff    	lea    -0x2fb1(%ebx),%eax
    13c3:	50                   	push   %eax
    13c4:	e8 17 fc ff ff       	call   fe0 <printf@plt>
    13c9:	83 c4 10             	add    $0x10,%esp
    13cc:	83 ec 0c             	sub    $0xc,%esp
    13cf:	6a 01                	push   $0x1
    13d1:	e8 81 0a 00 00       	call   1e57 <validate>
    13d6:	83 c4 10             	add    $0x10,%esp
    13d9:	eb 15                	jmp    13f0 <fizz+0x58>
    13db:	83 ec 08             	sub    $0x8,%esp
    13de:	ff 75 08             	pushl  0x8(%ebp)
    13e1:	8d 83 70 d0 ff ff    	lea    -0x2f90(%ebx),%eax
    13e7:	50                   	push   %eax
    13e8:	e8 f3 fb ff ff       	call   fe0 <printf@plt>
    13ed:	83 c4 10             	add    $0x10,%esp
    13f0:	83 ec 0c             	sub    $0xc,%esp
    13f3:	6a 00                	push   $0x0
    13f5:	e8 d6 fc ff ff       	call   10d0 <exit@plt>

000013fa <bang>:
    13fa:	55                   	push   %ebp
    13fb:	89 e5                	mov    %esp,%ebp
    13fd:	53                   	push   %ebx
    13fe:	83 ec 04             	sub    $0x4,%esp
    1401:	e8 5a fe ff ff       	call   1260 <__x86.get_pc_thunk.bx>
    1406:	81 c3 36 4b 00 00    	add    $0x4b36,%ebx
    140c:	8b 83 20 41 00 00    	mov    0x4120(%ebx),%eax
    1412:	89 c2                	mov    %eax,%edx
    1414:	8b 83 18 41 00 00    	mov    0x4118(%ebx),%eax
    141a:	39 c2                	cmp    %eax,%edx
    141c:	75 28                	jne    1446 <bang+0x4c>
    141e:	8b 83 20 41 00 00    	mov    0x4120(%ebx),%eax
    1424:	83 ec 08             	sub    $0x8,%esp
    1427:	50                   	push   %eax
    1428:	8d 83 90 d0 ff ff    	lea    -0x2f70(%ebx),%eax
    142e:	50                   	push   %eax
    142f:	e8 ac fb ff ff       	call   fe0 <printf@plt>
    1434:	83 c4 10             	add    $0x10,%esp
    1437:	83 ec 0c             	sub    $0xc,%esp
    143a:	6a 02                	push   $0x2
    143c:	e8 16 0a 00 00       	call   1e57 <validate>
    1441:	83 c4 10             	add    $0x10,%esp
    1444:	eb 19                	jmp    145f <bang+0x65>
    1446:	8b 83 20 41 00 00    	mov    0x4120(%ebx),%eax
    144c:	83 ec 08             	sub    $0x8,%esp
    144f:	50                   	push   %eax
    1450:	8d 83 b5 d0 ff ff    	lea    -0x2f4b(%ebx),%eax
    1456:	50                   	push   %eax
    1457:	e8 84 fb ff ff       	call   fe0 <printf@plt>
    145c:	83 c4 10             	add    $0x10,%esp
    145f:	83 ec 0c             	sub    $0xc,%esp
    1462:	6a 00                	push   $0x0
    1464:	e8 67 fc ff ff       	call   10d0 <exit@plt>

00001469 <test>:
    1469:	55                   	push   %ebp
    146a:	89 e5                	mov    %esp,%ebp
    146c:	53                   	push   %ebx
    146d:	83 ec 14             	sub    $0x14,%esp
    1470:	e8 eb fd ff ff       	call   1260 <__x86.get_pc_thunk.bx>
    1475:	81 c3 c7 4a 00 00    	add    $0x4ac7,%ebx
    147b:	e8 3f 05 00 00       	call   19bf <uniqueval>
    1480:	89 45 f0             	mov    %eax,-0x10(%ebp)
    1483:	e8 da 07 00 00       	call   1c62 <getbuf>
    1488:	89 45 f4             	mov    %eax,-0xc(%ebp)
    148b:	e8 2f 05 00 00       	call   19bf <uniqueval>
    1490:	89 c2                	mov    %eax,%edx
    1492:	8b 45 f0             	mov    -0x10(%ebp),%eax
    1495:	39 c2                	cmp    %eax,%edx
    1497:	74 14                	je     14ad <test+0x44>
    1499:	83 ec 0c             	sub    $0xc,%esp
    149c:	8d 83 d4 d0 ff ff    	lea    -0x2f2c(%ebx),%eax
    14a2:	50                   	push   %eax
    14a3:	e8 18 fc ff ff       	call   10c0 <puts@plt>
    14a8:	83 c4 10             	add    $0x10,%esp
    14ab:	eb 46                	jmp    14f3 <test+0x8a>
    14ad:	8b 55 f4             	mov    -0xc(%ebp),%edx
    14b0:	8b 83 18 41 00 00    	mov    0x4118(%ebx),%eax
    14b6:	39 c2                	cmp    %eax,%edx
    14b8:	75 24                	jne    14de <test+0x75>
    14ba:	83 ec 08             	sub    $0x8,%esp
    14bd:	ff 75 f4             	pushl  -0xc(%ebp)
    14c0:	8d 83 fd d0 ff ff    	lea    -0x2f03(%ebx),%eax
    14c6:	50                   	push   %eax
    14c7:	e8 14 fb ff ff       	call   fe0 <printf@plt>
    14cc:	83 c4 10             	add    $0x10,%esp
    14cf:	83 ec 0c             	sub    $0xc,%esp
    14d2:	6a 03                	push   $0x3
    14d4:	e8 7e 09 00 00       	call   1e57 <validate>
    14d9:	83 c4 10             	add    $0x10,%esp
    14dc:	eb 15                	jmp    14f3 <test+0x8a>
    14de:	83 ec 08             	sub    $0x8,%esp
    14e1:	ff 75 f4             	pushl  -0xc(%ebp)
    14e4:	8d 83 1a d1 ff ff    	lea    -0x2ee6(%ebx),%eax
    14ea:	50                   	push   %eax
    14eb:	e8 f0 fa ff ff       	call   fe0 <printf@plt>
    14f0:	83 c4 10             	add    $0x10,%esp
    14f3:	90                   	nop
    14f4:	8b 5d fc             	mov    -0x4(%ebp),%ebx
    14f7:	c9                   	leave  
    14f8:	c3                   	ret    

000014f9 <testn>:
    14f9:	55                   	push   %ebp
    14fa:	89 e5                	mov    %esp,%ebp
    14fc:	53                   	push   %ebx
    14fd:	83 ec 14             	sub    $0x14,%esp
    1500:	e8 5b fd ff ff       	call   1260 <__x86.get_pc_thunk.bx>
    1505:	81 c3 37 4a 00 00    	add    $0x4a37,%ebx
    150b:	e8 af 04 00 00       	call   19bf <uniqueval>
    1510:	89 45 f0             	mov    %eax,-0x10(%ebp)
    1513:	e8 76 07 00 00       	call   1c8e <getbufn>
    1518:	89 45 f4             	mov    %eax,-0xc(%ebp)
    151b:	e8 9f 04 00 00       	call   19bf <uniqueval>
    1520:	89 c2                	mov    %eax,%edx
    1522:	8b 45 f0             	mov    -0x10(%ebp),%eax
    1525:	39 c2                	cmp    %eax,%edx
    1527:	74 14                	je     153d <testn+0x44>
    1529:	83 ec 0c             	sub    $0xc,%esp
    152c:	8d 83 d4 d0 ff ff    	lea    -0x2f2c(%ebx),%eax
    1532:	50                   	push   %eax
    1533:	e8 88 fb ff ff       	call   10c0 <puts@plt>
    1538:	83 c4 10             	add    $0x10,%esp
    153b:	eb 46                	jmp    1583 <testn+0x8a>
    153d:	8b 55 f4             	mov    -0xc(%ebp),%edx
    1540:	8b 83 18 41 00 00    	mov    0x4118(%ebx),%eax
    1546:	39 c2                	cmp    %eax,%edx
    1548:	75 24                	jne    156e <testn+0x75>
    154a:	83 ec 08             	sub    $0x8,%esp
    154d:	ff 75 f4             	pushl  -0xc(%ebp)
    1550:	8d 83 38 d1 ff ff    	lea    -0x2ec8(%ebx),%eax
    1556:	50                   	push   %eax
    1557:	e8 84 fa ff ff       	call   fe0 <printf@plt>
    155c:	83 c4 10             	add    $0x10,%esp
    155f:	83 ec 0c             	sub    $0xc,%esp
    1562:	6a 04                	push   $0x4
    1564:	e8 ee 08 00 00       	call   1e57 <validate>
    1569:	83 c4 10             	add    $0x10,%esp
    156c:	eb 15                	jmp    1583 <testn+0x8a>
    156e:	83 ec 08             	sub    $0x8,%esp
    1571:	ff 75 f4             	pushl  -0xc(%ebp)
    1574:	8d 83 58 d1 ff ff    	lea    -0x2ea8(%ebx),%eax
    157a:	50                   	push   %eax
    157b:	e8 60 fa ff ff       	call   fe0 <printf@plt>
    1580:	83 c4 10             	add    $0x10,%esp
    1583:	90                   	nop
    1584:	8b 5d fc             	mov    -0x4(%ebp),%ebx
    1587:	c9                   	leave  
    1588:	c3                   	ret    

00001589 <save_char>:
    1589:	55                   	push   %ebp
    158a:	89 e5                	mov    %esp,%ebp
    158c:	56                   	push   %esi
    158d:	53                   	push   %ebx
    158e:	83 ec 04             	sub    $0x4,%esp
    1591:	e8 c8 06 00 00       	call   1c5e <__x86.get_pc_thunk.ax>
    1596:	05 a6 49 00 00       	add    $0x49a6,%eax
    159b:	8b 55 08             	mov    0x8(%ebp),%edx
    159e:	88 55 f4             	mov    %dl,-0xc(%ebp)
    15a1:	8b 90 24 41 00 00    	mov    0x4124(%eax),%edx
    15a7:	81 fa ff 03 00 00    	cmp    $0x3ff,%edx
    15ad:	7f 7e                	jg     162d <save_char+0xa4>
    15af:	0f b6 55 f4          	movzbl -0xc(%ebp),%edx
    15b3:	c0 fa 04             	sar    $0x4,%dl
    15b6:	0f be d2             	movsbl %dl,%edx
    15b9:	89 d6                	mov    %edx,%esi
    15bb:	83 e6 0f             	and    $0xf,%esi
    15be:	8b 88 24 41 00 00    	mov    0x4124(%eax),%ecx
    15c4:	89 ca                	mov    %ecx,%edx
    15c6:	01 d2                	add    %edx,%edx
    15c8:	8d 1c 0a             	lea    (%edx,%ecx,1),%ebx
    15cb:	0f b6 8c 30 cc 00 00 	movzbl 0xcc(%eax,%esi,1),%ecx
    15d2:	00 
    15d3:	8d 90 64 41 00 00    	lea    0x4164(%eax),%edx
    15d9:	88 0c 1a             	mov    %cl,(%edx,%ebx,1)
    15dc:	0f be 55 f4          	movsbl -0xc(%ebp),%edx
    15e0:	89 d6                	mov    %edx,%esi
    15e2:	83 e6 0f             	and    $0xf,%esi
    15e5:	8b 88 24 41 00 00    	mov    0x4124(%eax),%ecx
    15eb:	89 ca                	mov    %ecx,%edx
    15ed:	01 d2                	add    %edx,%edx
    15ef:	01 ca                	add    %ecx,%edx
    15f1:	8d 5a 01             	lea    0x1(%edx),%ebx
    15f4:	0f b6 8c 30 cc 00 00 	movzbl 0xcc(%eax,%esi,1),%ecx
    15fb:	00 
    15fc:	8d 90 64 41 00 00    	lea    0x4164(%eax),%edx
    1602:	88 0c 1a             	mov    %cl,(%edx,%ebx,1)
    1605:	8b 88 24 41 00 00    	mov    0x4124(%eax),%ecx
    160b:	89 ca                	mov    %ecx,%edx
    160d:	01 d2                	add    %edx,%edx
    160f:	01 ca                	add    %ecx,%edx
    1611:	8d 4a 02             	lea    0x2(%edx),%ecx
    1614:	8d 90 64 41 00 00    	lea    0x4164(%eax),%edx
    161a:	c6 04 0a 20          	movb   $0x20,(%edx,%ecx,1)
    161e:	8b 90 24 41 00 00    	mov    0x4124(%eax),%edx
    1624:	83 c2 01             	add    $0x1,%edx
    1627:	89 90 24 41 00 00    	mov    %edx,0x4124(%eax)
    162d:	90                   	nop
    162e:	83 c4 04             	add    $0x4,%esp
    1631:	5b                   	pop    %ebx
    1632:	5e                   	pop    %esi
    1633:	5d                   	pop    %ebp
    1634:	c3                   	ret    

00001635 <save_term>:
    1635:	55                   	push   %ebp
    1636:	89 e5                	mov    %esp,%ebp
    1638:	e8 1c fd ff ff       	call   1359 <__x86.get_pc_thunk.dx>
    163d:	81 c2 ff 48 00 00    	add    $0x48ff,%edx
    1643:	8b 8a 24 41 00 00    	mov    0x4124(%edx),%ecx
    1649:	89 c8                	mov    %ecx,%eax
    164b:	01 c0                	add    %eax,%eax
    164d:	01 c1                	add    %eax,%ecx
    164f:	8d 82 64 41 00 00    	lea    0x4164(%edx),%eax
    1655:	c6 04 08 00          	movb   $0x0,(%eax,%ecx,1)
    1659:	90                   	nop
    165a:	5d                   	pop    %ebp
    165b:	c3                   	ret    

0000165c <Gets>:
    165c:	55                   	push   %ebp
    165d:	89 e5                	mov    %esp,%ebp
    165f:	53                   	push   %ebx
    1660:	83 ec 14             	sub    $0x14,%esp
    1663:	e8 f8 fb ff ff       	call   1260 <__x86.get_pc_thunk.bx>
    1668:	81 c3 d4 48 00 00    	add    $0x48d4,%ebx
    166e:	8b 45 08             	mov    0x8(%ebp),%eax
    1671:	89 45 f0             	mov    %eax,-0x10(%ebp)
    1674:	c7 83 24 41 00 00 00 	movl   $0x0,0x4124(%ebx)
    167b:	00 00 00 
    167e:	eb 1d                	jmp    169d <Gets+0x41>
    1680:	8b 45 f0             	mov    -0x10(%ebp),%eax
    1683:	8d 50 01             	lea    0x1(%eax),%edx
    1686:	89 55 f0             	mov    %edx,-0x10(%ebp)
    1689:	8b 55 f4             	mov    -0xc(%ebp),%edx
    168c:	88 10                	mov    %dl,(%eax)
    168e:	8b 45 f4             	mov    -0xc(%ebp),%eax
    1691:	0f be c0             	movsbl %al,%eax
    1694:	50                   	push   %eax
    1695:	e8 ef fe ff ff       	call   1589 <save_char>
    169a:	83 c4 04             	add    $0x4,%esp
    169d:	8b 83 14 41 00 00    	mov    0x4114(%ebx),%eax
    16a3:	83 ec 0c             	sub    $0xc,%esp
    16a6:	50                   	push   %eax
    16a7:	e8 a4 f9 ff ff       	call   1050 <_IO_getc@plt>
    16ac:	83 c4 10             	add    $0x10,%esp
    16af:	89 45 f4             	mov    %eax,-0xc(%ebp)
    16b2:	83 7d f4 ff          	cmpl   $0xffffffff,-0xc(%ebp)
    16b6:	74 06                	je     16be <Gets+0x62>
    16b8:	83 7d f4 0a          	cmpl   $0xa,-0xc(%ebp)
    16bc:	75 c2                	jne    1680 <Gets+0x24>
    16be:	8b 45 f0             	mov    -0x10(%ebp),%eax
    16c1:	8d 50 01             	lea    0x1(%eax),%edx
    16c4:	89 55 f0             	mov    %edx,-0x10(%ebp)
    16c7:	c6 00 00             	movb   $0x0,(%eax)
    16ca:	e8 66 ff ff ff       	call   1635 <save_term>
    16cf:	8b 45 08             	mov    0x8(%ebp),%eax
    16d2:	8b 5d fc             	mov    -0x4(%ebp),%ebx
    16d5:	c9                   	leave  
    16d6:	c3                   	ret    

000016d7 <usage>:
    16d7:	55                   	push   %ebp
    16d8:	89 e5                	mov    %esp,%ebp
    16da:	53                   	push   %ebx
    16db:	83 ec 04             	sub    $0x4,%esp
    16de:	e8 7d fb ff ff       	call   1260 <__x86.get_pc_thunk.bx>
    16e3:	81 c3 59 48 00 00    	add    $0x4859,%ebx
    16e9:	83 ec 08             	sub    $0x8,%esp
    16ec:	ff 75 08             	pushl  0x8(%ebp)
    16ef:	8d 83 74 d1 ff ff    	lea    -0x2e8c(%ebx),%eax
    16f5:	50                   	push   %eax
    16f6:	e8 e5 f8 ff ff       	call   fe0 <printf@plt>
    16fb:	83 c4 10             	add    $0x10,%esp
    16fe:	83 ec 0c             	sub    $0xc,%esp
    1701:	8d 83 92 d1 ff ff    	lea    -0x2e6e(%ebx),%eax
    1707:	50                   	push   %eax
    1708:	e8 b3 f9 ff ff       	call   10c0 <puts@plt>
    170d:	83 c4 10             	add    $0x10,%esp
    1710:	83 ec 0c             	sub    $0xc,%esp
    1713:	8d 83 a8 d1 ff ff    	lea    -0x2e58(%ebx),%eax
    1719:	50                   	push   %eax
    171a:	e8 a1 f9 ff ff       	call   10c0 <puts@plt>
    171f:	83 c4 10             	add    $0x10,%esp
    1722:	83 ec 0c             	sub    $0xc,%esp
    1725:	8d 83 c4 d1 ff ff    	lea    -0x2e3c(%ebx),%eax
    172b:	50                   	push   %eax
    172c:	e8 8f f9 ff ff       	call   10c0 <puts@plt>
    1731:	83 c4 10             	add    $0x10,%esp
    1734:	83 ec 0c             	sub    $0xc,%esp
    1737:	8d 83 00 d2 ff ff    	lea    -0x2e00(%ebx),%eax
    173d:	50                   	push   %eax
    173e:	e8 7d f9 ff ff       	call   10c0 <puts@plt>
    1743:	83 c4 10             	add    $0x10,%esp
    1746:	83 ec 0c             	sub    $0xc,%esp
    1749:	6a 00                	push   $0x0
    174b:	e8 80 f9 ff ff       	call   10d0 <exit@plt>

00001750 <bushandler>:
    1750:	55                   	push   %ebp
    1751:	89 e5                	mov    %esp,%ebp
    1753:	53                   	push   %ebx
    1754:	83 ec 04             	sub    $0x4,%esp
    1757:	e8 04 fb ff ff       	call   1260 <__x86.get_pc_thunk.bx>
    175c:	81 c3 e0 47 00 00    	add    $0x47e0,%ebx
    1762:	83 ec 0c             	sub    $0xc,%esp
    1765:	8d 83 28 d2 ff ff    	lea    -0x2dd8(%ebx),%eax
    176b:	50                   	push   %eax
    176c:	e8 4f f9 ff ff       	call   10c0 <puts@plt>
    1771:	83 c4 10             	add    $0x10,%esp
    1774:	83 ec 0c             	sub    $0xc,%esp
    1777:	8d 83 48 d2 ff ff    	lea    -0x2db8(%ebx),%eax
    177d:	50                   	push   %eax
    177e:	e8 3d f9 ff ff       	call   10c0 <puts@plt>
    1783:	83 c4 10             	add    $0x10,%esp
    1786:	83 ec 0c             	sub    $0xc,%esp
    1789:	6a 00                	push   $0x0
    178b:	e8 40 f9 ff ff       	call   10d0 <exit@plt>

00001790 <seghandler>:
    1790:	55                   	push   %ebp
    1791:	89 e5                	mov    %esp,%ebp
    1793:	53                   	push   %ebx
    1794:	83 ec 04             	sub    $0x4,%esp
    1797:	e8 c4 fa ff ff       	call   1260 <__x86.get_pc_thunk.bx>
    179c:	81 c3 a0 47 00 00    	add    $0x47a0,%ebx
    17a2:	83 ec 0c             	sub    $0xc,%esp
    17a5:	8d 83 60 d2 ff ff    	lea    -0x2da0(%ebx),%eax
    17ab:	50                   	push   %eax
    17ac:	e8 0f f9 ff ff       	call   10c0 <puts@plt>
    17b1:	83 c4 10             	add    $0x10,%esp
    17b4:	83 ec 0c             	sub    $0xc,%esp
    17b7:	8d 83 48 d2 ff ff    	lea    -0x2db8(%ebx),%eax
    17bd:	50                   	push   %eax
    17be:	e8 fd f8 ff ff       	call   10c0 <puts@plt>
    17c3:	83 c4 10             	add    $0x10,%esp
    17c6:	83 ec 0c             	sub    $0xc,%esp
    17c9:	6a 00                	push   $0x0
    17cb:	e8 00 f9 ff ff       	call   10d0 <exit@plt>

000017d0 <illegalhandler>:
    17d0:	55                   	push   %ebp
    17d1:	89 e5                	mov    %esp,%ebp
    17d3:	53                   	push   %ebx
    17d4:	83 ec 04             	sub    $0x4,%esp
    17d7:	e8 84 fa ff ff       	call   1260 <__x86.get_pc_thunk.bx>
    17dc:	81 c3 60 47 00 00    	add    $0x4760,%ebx
    17e2:	83 ec 0c             	sub    $0xc,%esp
    17e5:	8d 83 88 d2 ff ff    	lea    -0x2d78(%ebx),%eax
    17eb:	50                   	push   %eax
    17ec:	e8 cf f8 ff ff       	call   10c0 <puts@plt>
    17f1:	83 c4 10             	add    $0x10,%esp
    17f4:	83 ec 0c             	sub    $0xc,%esp
    17f7:	8d 83 48 d2 ff ff    	lea    -0x2db8(%ebx),%eax
    17fd:	50                   	push   %eax
    17fe:	e8 bd f8 ff ff       	call   10c0 <puts@plt>
    1803:	83 c4 10             	add    $0x10,%esp
    1806:	83 ec 0c             	sub    $0xc,%esp
    1809:	6a 00                	push   $0x0
    180b:	e8 c0 f8 ff ff       	call   10d0 <exit@plt>

00001810 <launch>:
    1810:	55                   	push   %ebp
    1811:	89 e5                	mov    %esp,%ebp
    1813:	53                   	push   %ebx
    1814:	83 ec 54             	sub    $0x54,%esp
    1817:	e8 44 fa ff ff       	call   1260 <__x86.get_pc_thunk.bx>
    181c:	81 c3 20 47 00 00    	add    $0x4720,%ebx
    1822:	65 a1 14 00 00 00    	mov    %gs:0x14,%eax
    1828:	89 45 f4             	mov    %eax,-0xc(%ebp)
    182b:	31 c0                	xor    %eax,%eax
    182d:	c7 45 ac 00 00 00 00 	movl   $0x0,-0x54(%ebp)
    1834:	8d 45 b4             	lea    -0x4c(%ebp),%eax
    1837:	25 f0 3f 00 00       	and    $0x3ff0,%eax
    183c:	89 45 ac             	mov    %eax,-0x54(%ebp)
    183f:	8b 55 0c             	mov    0xc(%ebp),%edx
    1842:	8b 45 ac             	mov    -0x54(%ebp),%eax
    1845:	01 d0                	add    %edx,%eax
    1847:	8d 50 0f             	lea    0xf(%eax),%edx
    184a:	b8 10 00 00 00       	mov    $0x10,%eax
    184f:	83 e8 01             	sub    $0x1,%eax
    1852:	01 d0                	add    %edx,%eax
    1854:	b9 10 00 00 00       	mov    $0x10,%ecx
    1859:	ba 00 00 00 00       	mov    $0x0,%edx
    185e:	f7 f1                	div    %ecx
    1860:	6b c0 10             	imul   $0x10,%eax,%eax
    1863:	29 c4                	sub    %eax,%esp
    1865:	89 e0                	mov    %esp,%eax
    1867:	83 c0 0f             	add    $0xf,%eax
    186a:	c1 e8 04             	shr    $0x4,%eax
    186d:	c1 e0 04             	shl    $0x4,%eax
    1870:	89 45 b0             	mov    %eax,-0x50(%ebp)
    1873:	83 ec 04             	sub    $0x4,%esp
    1876:	ff 75 ac             	pushl  -0x54(%ebp)
    1879:	68 f4 00 00 00       	push   $0xf4
    187e:	ff 75 b0             	pushl  -0x50(%ebp)
    1881:	e8 da f8 ff ff       	call   1160 <memset@plt>
    1886:	83 c4 10             	add    $0x10,%esp
    1889:	83 ec 0c             	sub    $0xc,%esp
    188c:	8d 83 b3 d2 ff ff    	lea    -0x2d4d(%ebx),%eax
    1892:	50                   	push   %eax
    1893:	e8 48 f7 ff ff       	call   fe0 <printf@plt>
    1898:	83 c4 10             	add    $0x10,%esp
    189b:	83 7d 08 00          	cmpl   $0x0,0x8(%ebp)
    189f:	74 07                	je     18a8 <launch+0x98>
    18a1:	e8 53 fc ff ff       	call   14f9 <testn>
    18a6:	eb 05                	jmp    18ad <launch+0x9d>
    18a8:	e8 bc fb ff ff       	call   1469 <test>
    18ad:	8b 83 1c 41 00 00    	mov    0x411c(%ebx),%eax
    18b3:	85 c0                	test   %eax,%eax
    18b5:	75 1c                	jne    18d3 <launch+0xc3>
    18b7:	83 ec 0c             	sub    $0xc,%esp
    18ba:	8d 83 48 d2 ff ff    	lea    -0x2db8(%ebx),%eax
    18c0:	50                   	push   %eax
    18c1:	e8 fa f7 ff ff       	call   10c0 <puts@plt>
    18c6:	83 c4 10             	add    $0x10,%esp
    18c9:	c7 83 1c 41 00 00 00 	movl   $0x0,0x411c(%ebx)
    18d0:	00 00 00 
    18d3:	90                   	nop
    18d4:	8b 45 f4             	mov    -0xc(%ebp),%eax
    18d7:	65 33 05 14 00 00 00 	xor    %gs:0x14,%eax
    18de:	74 05                	je     18e5 <launch+0xd5>
    18e0:	e8 5b 16 00 00       	call   2f40 <__stack_chk_fail_local>
    18e5:	8b 5d fc             	mov    -0x4(%ebp),%ebx
    18e8:	c9                   	leave  
    18e9:	c3                   	ret    

000018ea <launcher>:
    18ea:	55                   	push   %ebp
    18eb:	89 e5                	mov    %esp,%ebp
    18ed:	53                   	push   %ebx
    18ee:	83 ec 14             	sub    $0x14,%esp
    18f1:	e8 6a f9 ff ff       	call   1260 <__x86.get_pc_thunk.bx>
    18f6:	81 c3 46 46 00 00    	add    $0x4646,%ebx
    18fc:	8b 45 08             	mov    0x8(%ebp),%eax
    18ff:	89 83 28 41 00 00    	mov    %eax,0x4128(%ebx)
    1905:	8b 45 0c             	mov    0xc(%ebp),%eax
    1908:	89 83 2c 41 00 00    	mov    %eax,0x412c(%ebx)
    190e:	83 ec 08             	sub    $0x8,%esp
    1911:	6a 00                	push   $0x0
    1913:	6a 00                	push   $0x0
    1915:	68 32 01 00 00       	push   $0x132
    191a:	6a 07                	push   $0x7
    191c:	68 00 00 10 00       	push   $0x100000
    1921:	68 00 60 58 55       	push   $0x55586000
    1926:	e8 c5 f7 ff ff       	call   10f0 <mmap@plt>
    192b:	83 c4 20             	add    $0x20,%esp
    192e:	89 45 f4             	mov    %eax,-0xc(%ebp)
    1931:	81 7d f4 00 60 58 55 	cmpl   $0x55586000,-0xc(%ebp)
    1938:	74 26                	je     1960 <launcher+0x76>
    193a:	8b 83 a8 00 00 00    	mov    0xa8(%ebx),%eax
    1940:	8b 00                	mov    (%eax),%eax
    1942:	50                   	push   %eax
    1943:	6a 47                	push   $0x47
    1945:	6a 01                	push   $0x1
    1947:	8d 83 c0 d2 ff ff    	lea    -0x2d40(%ebx),%eax
    194d:	50                   	push   %eax
    194e:	e8 1d f7 ff ff       	call   1070 <fwrite@plt>
    1953:	83 c4 10             	add    $0x10,%esp
    1956:	83 ec 0c             	sub    $0xc,%esp
    1959:	6a 01                	push   $0x1
    195b:	e8 70 f7 ff ff       	call   10d0 <exit@plt>
    1960:	8b 45 f4             	mov    -0xc(%ebp),%eax
    1963:	8d 90 f8 ff 0f 00    	lea    0xffff8(%eax),%edx
    1969:	8d 83 44 41 00 00    	lea    0x4144(%ebx),%eax
    196f:	89 10                	mov    %edx,(%eax)
    1971:	8d 83 44 41 00 00    	lea    0x4144(%ebx),%eax
    1977:	8b 10                	mov    (%eax),%edx
    1979:	89 e0                	mov    %esp,%eax
    197b:	89 d4                	mov    %edx,%esp
    197d:	89 c2                	mov    %eax,%edx
    197f:	89 93 30 41 00 00    	mov    %edx,0x4130(%ebx)
    1985:	8b 93 2c 41 00 00    	mov    0x412c(%ebx),%edx
    198b:	8b 83 28 41 00 00    	mov    0x4128(%ebx),%eax
    1991:	83 ec 08             	sub    $0x8,%esp
    1994:	52                   	push   %edx
    1995:	50                   	push   %eax
    1996:	e8 75 fe ff ff       	call   1810 <launch>
    199b:	83 c4 10             	add    $0x10,%esp
    199e:	8b 83 30 41 00 00    	mov    0x4130(%ebx),%eax
    19a4:	89 c4                	mov    %eax,%esp
    19a6:	83 ec 08             	sub    $0x8,%esp
    19a9:	68 00 00 10 00       	push   $0x100000
    19ae:	ff 75 f4             	pushl  -0xc(%ebp)
    19b1:	e8 da f7 ff ff       	call   1190 <munmap@plt>
    19b6:	83 c4 10             	add    $0x10,%esp
    19b9:	90                   	nop
    19ba:	8b 5d fc             	mov    -0x4(%ebp),%ebx
    19bd:	c9                   	leave  
    19be:	c3                   	ret    

000019bf <uniqueval>:
    19bf:	55                   	push   %ebp
    19c0:	89 e5                	mov    %esp,%ebp
    19c2:	53                   	push   %ebx
    19c3:	83 ec 04             	sub    $0x4,%esp
    19c6:	e8 95 f8 ff ff       	call   1260 <__x86.get_pc_thunk.bx>
    19cb:	81 c3 71 45 00 00    	add    $0x4571,%ebx
    19d1:	e8 ca f6 ff ff       	call   10a0 <getpid@plt>
    19d6:	83 ec 0c             	sub    $0xc,%esp
    19d9:	50                   	push   %eax
    19da:	e8 f1 f5 ff ff       	call   fd0 <srandom@plt>
    19df:	83 c4 10             	add    $0x10,%esp
    19e2:	e8 d9 f7 ff ff       	call   11c0 <random@plt>
    19e7:	8b 5d fc             	mov    -0x4(%ebp),%ebx
    19ea:	c9                   	leave  
    19eb:	c3                   	ret    

000019ec <main>:
    19ec:	8d 4c 24 04          	lea    0x4(%esp),%ecx
    19f0:	83 e4 f0             	and    $0xfffffff0,%esp
    19f3:	ff 71 fc             	pushl  -0x4(%ecx)
    19f6:	55                   	push   %ebp
    19f7:	89 e5                	mov    %esp,%ebp
    19f9:	56                   	push   %esi
    19fa:	53                   	push   %ebx
    19fb:	51                   	push   %ecx
    19fc:	83 ec 2c             	sub    $0x2c,%esp
    19ff:	e8 5c f8 ff ff       	call   1260 <__x86.get_pc_thunk.bx>
    1a04:	81 c3 38 45 00 00    	add    $0x4538,%ebx
    1a0a:	89 ce                	mov    %ecx,%esi
    1a0c:	c7 45 e0 00 00 00 00 	movl   $0x0,-0x20(%ebp)
    1a13:	c7 45 d4 00 00 00 00 	movl   $0x0,-0x2c(%ebp)
    1a1a:	c7 45 dc 01 00 00 00 	movl   $0x1,-0x24(%ebp)
    1a21:	83 ec 08             	sub    $0x8,%esp
    1a24:	8d 83 54 b8 ff ff    	lea    -0x47ac(%ebx),%eax
    1a2a:	50                   	push   %eax
    1a2b:	6a 0b                	push   $0xb
    1a2d:	e8 ee f5 ff ff       	call   1020 <signal@plt>
    1a32:	83 c4 10             	add    $0x10,%esp
    1a35:	83 ec 08             	sub    $0x8,%esp
    1a38:	8d 83 14 b8 ff ff    	lea    -0x47ec(%ebx),%eax
    1a3e:	50                   	push   %eax
    1a3f:	6a 07                	push   $0x7
    1a41:	e8 da f5 ff ff       	call   1020 <signal@plt>
    1a46:	83 c4 10             	add    $0x10,%esp
    1a49:	83 ec 08             	sub    $0x8,%esp
    1a4c:	8d 83 94 b8 ff ff    	lea    -0x476c(%ebx),%eax
    1a52:	50                   	push   %eax
    1a53:	6a 04                	push   $0x4
    1a55:	e8 c6 f5 ff ff       	call   1020 <signal@plt>
    1a5a:	83 c4 10             	add    $0x10,%esp
    1a5d:	8b 83 b4 00 00 00    	mov    0xb4(%ebx),%eax
    1a63:	8b 00                	mov    (%eax),%eax
    1a65:	89 83 14 41 00 00    	mov    %eax,0x4114(%ebx)
    1a6b:	e9 9a 00 00 00       	jmp    1b0a <.L43+0x11>
    1a70:	0f be 45 d3          	movsbl -0x2d(%ebp),%eax
    1a74:	83 e8 67             	sub    $0x67,%eax
    1a77:	83 f8 0e             	cmp    $0xe,%eax
    1a7a:	77 7d                	ja     1af9 <.L43>
    1a7c:	c1 e0 02             	shl    $0x2,%eax
    1a7f:	8b 84 18 58 d3 ff ff 	mov    -0x2ca8(%eax,%ebx,1),%eax
    1a86:	01 d8                	add    %ebx,%eax
    1a88:	ff e0                	jmp    *%eax

00001a8a <.L46>:
    1a8a:	8b 46 04             	mov    0x4(%esi),%eax
    1a8d:	8b 00                	mov    (%eax),%eax
    1a8f:	83 ec 0c             	sub    $0xc,%esp
    1a92:	50                   	push   %eax
    1a93:	e8 3f fc ff ff       	call   16d7 <usage>
    1a98:	83 c4 10             	add    $0x10,%esp
    1a9b:	eb 6d                	jmp    1b0a <.L43+0x11>

00001a9d <.L47>:
    1a9d:	c7 45 d4 01 00 00 00 	movl   $0x1,-0x2c(%ebp)
    1aa4:	c7 45 dc 05 00 00 00 	movl   $0x5,-0x24(%ebp)
    1aab:	eb 5d                	jmp    1b0a <.L43+0x11>

00001aad <.L49>:
    1aad:	8b 83 c0 00 00 00    	mov    0xc0(%ebx),%eax
    1ab3:	8b 00                	mov    (%eax),%eax
    1ab5:	83 ec 0c             	sub    $0xc,%esp
    1ab8:	50                   	push   %eax
    1ab9:	e8 32 f5 ff ff       	call   ff0 <strdup@plt>
    1abe:	83 c4 10             	add    $0x10,%esp
    1ac1:	89 83 08 41 00 00    	mov    %eax,0x4108(%ebx)
    1ac7:	8b 83 08 41 00 00    	mov    0x4108(%ebx),%eax
    1acd:	83 ec 0c             	sub    $0xc,%esp
    1ad0:	50                   	push   %eax
    1ad1:	e8 ab 13 00 00       	call   2e81 <gencookie>
    1ad6:	83 c4 10             	add    $0x10,%esp
    1ad9:	89 83 18 41 00 00    	mov    %eax,0x4118(%ebx)
    1adf:	eb 29                	jmp    1b0a <.L43+0x11>

00001ae1 <.L57>:
    1ae1:	c7 83 0c 41 00 00 01 	movl   $0x1,0x410c(%ebx)
    1ae8:	00 00 00 
    1aeb:	eb 1d                	jmp    1b0a <.L43+0x11>

00001aed <.L44>:
    1aed:	c7 83 10 41 00 00 01 	movl   $0x1,0x4110(%ebx)
    1af4:	00 00 00 
    1af7:	eb 11                	jmp    1b0a <.L43+0x11>

00001af9 <.L43>:
    1af9:	8b 46 04             	mov    0x4(%esi),%eax
    1afc:	8b 00                	mov    (%eax),%eax
    1afe:	83 ec 0c             	sub    $0xc,%esp
    1b01:	50                   	push   %eax
    1b02:	e8 d0 fb ff ff       	call   16d7 <usage>
    1b07:	83 c4 10             	add    $0x10,%esp
    1b0a:	83 ec 04             	sub    $0x4,%esp
    1b0d:	8d 83 08 d3 ff ff    	lea    -0x2cf8(%ebx),%eax
    1b13:	50                   	push   %eax
    1b14:	ff 76 04             	pushl  0x4(%esi)
    1b17:	ff 36                	pushl  (%esi)
    1b19:	e8 12 f6 ff ff       	call   1130 <getopt@plt>
    1b1e:	83 c4 10             	add    $0x10,%esp
    1b21:	88 45 d3             	mov    %al,-0x2d(%ebp)
    1b24:	80 7d d3 ff          	cmpb   $0xff,-0x2d(%ebp)
    1b28:	0f 85 42 ff ff ff    	jne    1a70 <main+0x84>
    1b2e:	8b 83 08 41 00 00    	mov    0x4108(%ebx),%eax
    1b34:	85 c0                	test   %eax,%eax
    1b36:	75 29                	jne    1b61 <.L43+0x68>
    1b38:	8b 46 04             	mov    0x4(%esi),%eax
    1b3b:	8b 00                	mov    (%eax),%eax
    1b3d:	83 ec 08             	sub    $0x8,%esp
    1b40:	50                   	push   %eax
    1b41:	8d 83 10 d3 ff ff    	lea    -0x2cf0(%ebx),%eax
    1b47:	50                   	push   %eax
    1b48:	e8 93 f4 ff ff       	call   fe0 <printf@plt>
    1b4d:	83 c4 10             	add    $0x10,%esp
    1b50:	8b 46 04             	mov    0x4(%esi),%eax
    1b53:	8b 00                	mov    (%eax),%eax
    1b55:	83 ec 0c             	sub    $0xc,%esp
    1b58:	50                   	push   %eax
    1b59:	e8 79 fb ff ff       	call   16d7 <usage>
    1b5e:	83 c4 10             	add    $0x10,%esp
    1b61:	e8 5a 01 00 00       	call   1cc0 <initialize_bomb>
    1b66:	8b 83 08 41 00 00    	mov    0x4108(%ebx),%eax
    1b6c:	83 ec 08             	sub    $0x8,%esp
    1b6f:	50                   	push   %eax
    1b70:	8d 83 3c d3 ff ff    	lea    -0x2cc4(%ebx),%eax
    1b76:	50                   	push   %eax
    1b77:	e8 64 f4 ff ff       	call   fe0 <printf@plt>
    1b7c:	83 c4 10             	add    $0x10,%esp
    1b7f:	8b 83 18 41 00 00    	mov    0x4118(%ebx),%eax
    1b85:	83 ec 08             	sub    $0x8,%esp
    1b88:	50                   	push   %eax
    1b89:	8d 83 48 d3 ff ff    	lea    -0x2cb8(%ebx),%eax
    1b8f:	50                   	push   %eax
    1b90:	e8 4b f4 ff ff       	call   fe0 <printf@plt>
    1b95:	83 c4 10             	add    $0x10,%esp
    1b98:	8b 83 18 41 00 00    	mov    0x4118(%ebx),%eax
    1b9e:	83 ec 0c             	sub    $0xc,%esp
    1ba1:	50                   	push   %eax
    1ba2:	e8 29 f4 ff ff       	call   fd0 <srandom@plt>
    1ba7:	83 c4 10             	add    $0x10,%esp
    1baa:	e8 11 f6 ff ff       	call   11c0 <random@plt>
    1baf:	25 f0 0f 00 00       	and    $0xff0,%eax
    1bb4:	05 00 01 00 00       	add    $0x100,%eax
    1bb9:	89 45 e0             	mov    %eax,-0x20(%ebp)
    1bbc:	8b 45 dc             	mov    -0x24(%ebp),%eax
    1bbf:	83 ec 08             	sub    $0x8,%esp
    1bc2:	6a 04                	push   $0x4
    1bc4:	50                   	push   %eax
    1bc5:	e8 36 f6 ff ff       	call   1200 <calloc@plt>
    1bca:	83 c4 10             	add    $0x10,%esp
    1bcd:	89 45 e4             	mov    %eax,-0x1c(%ebp)
    1bd0:	8b 45 e4             	mov    -0x1c(%ebp),%eax
    1bd3:	c7 00 00 00 00 00    	movl   $0x0,(%eax)
    1bd9:	c7 45 d8 01 00 00 00 	movl   $0x1,-0x28(%ebp)
    1be0:	eb 2a                	jmp    1c0c <.L43+0x113>
    1be2:	e8 d9 f5 ff ff       	call   11c0 <random@plt>
    1be7:	25 f0 00 00 00       	and    $0xf0,%eax
    1bec:	89 c2                	mov    %eax,%edx
    1bee:	8b 45 d8             	mov    -0x28(%ebp),%eax
    1bf1:	8d 0c 85 00 00 00 00 	lea    0x0(,%eax,4),%ecx
    1bf8:	8b 45 e4             	mov    -0x1c(%ebp),%eax
    1bfb:	01 c8                	add    %ecx,%eax
    1bfd:	b9 80 00 00 00       	mov    $0x80,%ecx
    1c02:	29 d1                	sub    %edx,%ecx
    1c04:	89 ca                	mov    %ecx,%edx
    1c06:	89 10                	mov    %edx,(%eax)
    1c08:	83 45 d8 01          	addl   $0x1,-0x28(%ebp)
    1c0c:	8b 45 d8             	mov    -0x28(%ebp),%eax
    1c0f:	3b 45 dc             	cmp    -0x24(%ebp),%eax
    1c12:	7c ce                	jl     1be2 <.L43+0xe9>
    1c14:	c7 45 d8 00 00 00 00 	movl   $0x0,-0x28(%ebp)
    1c1b:	eb 29                	jmp    1c46 <.L43+0x14d>
    1c1d:	8b 45 d8             	mov    -0x28(%ebp),%eax
    1c20:	8d 14 85 00 00 00 00 	lea    0x0(,%eax,4),%edx
    1c27:	8b 45 e4             	mov    -0x1c(%ebp),%eax
    1c2a:	01 d0                	add    %edx,%eax
    1c2c:	8b 10                	mov    (%eax),%edx
    1c2e:	8b 45 e0             	mov    -0x20(%ebp),%eax
    1c31:	01 d0                	add    %edx,%eax
    1c33:	83 ec 08             	sub    $0x8,%esp
    1c36:	50                   	push   %eax
    1c37:	ff 75 d4             	pushl  -0x2c(%ebp)
    1c3a:	e8 ab fc ff ff       	call   18ea <launcher>
    1c3f:	83 c4 10             	add    $0x10,%esp
    1c42:	83 45 d8 01          	addl   $0x1,-0x28(%ebp)
    1c46:	8b 45 d8             	mov    -0x28(%ebp),%eax
    1c49:	3b 45 dc             	cmp    -0x24(%ebp),%eax
    1c4c:	7c cf                	jl     1c1d <.L43+0x124>
    1c4e:	b8 00 00 00 00       	mov    $0x0,%eax
    1c53:	8d 65 f4             	lea    -0xc(%ebp),%esp
    1c56:	59                   	pop    %ecx
    1c57:	5b                   	pop    %ebx
    1c58:	5e                   	pop    %esi
    1c59:	5d                   	pop    %ebp
    1c5a:	8d 61 fc             	lea    -0x4(%ecx),%esp
    1c5d:	c3                   	ret    

00001c5e <__x86.get_pc_thunk.ax>:
    1c5e:	8b 04 24             	mov    (%esp),%eax
    1c61:	c3                   	ret    

00001c62 <getbuf>:
    1c62:	55                   	push   %ebp
    1c63:	89 e5                	mov    %esp,%ebp
    1c65:	53                   	push   %ebx
    1c66:	83 ec 24             	sub    $0x24,%esp
    1c69:	e8 f0 ff ff ff       	call   1c5e <__x86.get_pc_thunk.ax>
    1c6e:	05 ce 42 00 00       	add    $0x42ce,%eax
    1c73:	83 ec 0c             	sub    $0xc,%esp
    1c76:	8d 55 d8             	lea    -0x28(%ebp),%edx
    1c79:	52                   	push   %edx
    1c7a:	89 c3                	mov    %eax,%ebx
    1c7c:	e8 db f9 ff ff       	call   165c <Gets>
    1c81:	83 c4 10             	add    $0x10,%esp
    1c84:	b8 01 00 00 00       	mov    $0x1,%eax
    1c89:	8b 5d fc             	mov    -0x4(%ebp),%ebx
    1c8c:	c9                   	leave  
    1c8d:	c3                   	ret    

00001c8e <getbufn>:
    1c8e:	55                   	push   %ebp
    1c8f:	89 e5                	mov    %esp,%ebp
    1c91:	53                   	push   %ebx
    1c92:	81 ec 04 02 00 00    	sub    $0x204,%esp
    1c98:	e8 c1 ff ff ff       	call   1c5e <__x86.get_pc_thunk.ax>
    1c9d:	05 9f 42 00 00       	add    $0x429f,%eax
    1ca2:	83 ec 0c             	sub    $0xc,%esp
    1ca5:	8d 95 f8 fd ff ff    	lea    -0x208(%ebp),%edx
    1cab:	52                   	push   %edx
    1cac:	89 c3                	mov    %eax,%ebx
    1cae:	e8 a9 f9 ff ff       	call   165c <Gets>
    1cb3:	83 c4 10             	add    $0x10,%esp
    1cb6:	b8 01 00 00 00       	mov    $0x1,%eax
    1cbb:	8b 5d fc             	mov    -0x4(%ebp),%ebx
    1cbe:	c9                   	leave  
    1cbf:	c3                   	ret    

00001cc0 <initialize_bomb>:
    1cc0:	55                   	push   %ebp
    1cc1:	89 e5                	mov    %esp,%ebp
    1cc3:	53                   	push   %ebx
    1cc4:	81 ec 14 30 00 00    	sub    $0x3014,%esp
    1cca:	e8 91 f5 ff ff       	call   1260 <__x86.get_pc_thunk.bx>
    1ccf:	81 c3 6d 42 00 00    	add    $0x426d,%ebx
    1cd5:	65 a1 14 00 00 00    	mov    %gs:0x14,%eax
    1cdb:	89 45 f4             	mov    %eax,-0xc(%ebp)
    1cde:	31 c0                	xor    %eax,%eax
    1ce0:	c7 85 f0 cf ff ff 00 	movl   $0x0,-0x3010(%ebp)
    1ce7:	00 00 00 
    1cea:	8d 83 10 41 00 00    	lea    0x4110(%ebx),%eax
    1cf0:	8b 00                	mov    (%eax),%eax
    1cf2:	85 c0                	test   %eax,%eax
    1cf4:	74 0d                	je     1d03 <initialize_bomb+0x43>
    1cf6:	83 ec 0c             	sub    $0xc,%esp
    1cf9:	6a ff                	push   $0xffffffff
    1cfb:	e8 1c 0e 00 00       	call   2b1c <init_timeout>
    1d00:	83 c4 10             	add    $0x10,%esp
    1d03:	8d 83 0c 41 00 00    	lea    0x410c(%ebx),%eax
    1d09:	8b 00                	mov    (%eax),%eax
    1d0b:	85 c0                	test   %eax,%eax
    1d0d:	0f 84 2d 01 00 00    	je     1e40 <initialize_bomb+0x180>
    1d13:	83 ec 08             	sub    $0x8,%esp
    1d16:	68 00 10 00 00       	push   $0x1000
    1d1b:	8d 85 f4 cf ff ff    	lea    -0x300c(%ebp),%eax
    1d21:	50                   	push   %eax
    1d22:	e8 89 f3 ff ff       	call   10b0 <gethostname@plt>
    1d27:	83 c4 10             	add    $0x10,%esp
    1d2a:	85 c0                	test   %eax,%eax
    1d2c:	74 1c                	je     1d4a <initialize_bomb+0x8a>
    1d2e:	83 ec 0c             	sub    $0xc,%esp
    1d31:	8d 83 fc da ff ff    	lea    -0x2504(%ebx),%eax
    1d37:	50                   	push   %eax
    1d38:	e8 83 f3 ff ff       	call   10c0 <puts@plt>
    1d3d:	83 c4 10             	add    $0x10,%esp
    1d40:	83 ec 0c             	sub    $0xc,%esp
    1d43:	6a 08                	push   $0x8
    1d45:	e8 86 f3 ff ff       	call   10d0 <exit@plt>
    1d4a:	c7 85 ec cf ff ff 00 	movl   $0x0,-0x3014(%ebp)
    1d51:	00 00 00 
    1d54:	eb 37                	jmp    1d8d <initialize_bomb+0xcd>
    1d56:	8b 85 ec cf ff ff    	mov    -0x3014(%ebp),%eax
    1d5c:	8b 84 83 04 01 00 00 	mov    0x104(%ebx,%eax,4),%eax
    1d63:	83 ec 08             	sub    $0x8,%esp
    1d66:	8d 95 f4 cf ff ff    	lea    -0x300c(%ebp),%edx
    1d6c:	52                   	push   %edx
    1d6d:	50                   	push   %eax
    1d6e:	e8 cd f3 ff ff       	call   1140 <strcasecmp@plt>
    1d73:	83 c4 10             	add    $0x10,%esp
    1d76:	85 c0                	test   %eax,%eax
    1d78:	75 0c                	jne    1d86 <initialize_bomb+0xc6>
    1d7a:	c7 85 f0 cf ff ff 01 	movl   $0x1,-0x3010(%ebp)
    1d81:	00 00 00 
    1d84:	eb 18                	jmp    1d9e <initialize_bomb+0xde>
    1d86:	83 85 ec cf ff ff 01 	addl   $0x1,-0x3014(%ebp)
    1d8d:	8b 85 ec cf ff ff    	mov    -0x3014(%ebp),%eax
    1d93:	8b 84 83 04 01 00 00 	mov    0x104(%ebx,%eax,4),%eax
    1d9a:	85 c0                	test   %eax,%eax
    1d9c:	75 b8                	jne    1d56 <initialize_bomb+0x96>
    1d9e:	83 bd f0 cf ff ff 00 	cmpl   $0x0,-0x3010(%ebp)
    1da5:	75 60                	jne    1e07 <initialize_bomb+0x147>
    1da7:	83 ec 08             	sub    $0x8,%esp
    1daa:	8d 85 f4 cf ff ff    	lea    -0x300c(%ebp),%eax
    1db0:	50                   	push   %eax
    1db1:	8d 83 34 db ff ff    	lea    -0x24cc(%ebx),%eax
    1db7:	50                   	push   %eax
    1db8:	e8 23 f2 ff ff       	call   fe0 <printf@plt>
    1dbd:	83 c4 10             	add    $0x10,%esp
    1dc0:	c7 85 ec cf ff ff 00 	movl   $0x0,-0x3014(%ebp)
    1dc7:	00 00 00 
    1dca:	eb 20                	jmp    1dec <initialize_bomb+0x12c>
    1dcc:	8b 85 ec cf ff ff    	mov    -0x3014(%ebp),%eax
    1dd2:	8b 84 83 04 01 00 00 	mov    0x104(%ebx,%eax,4),%eax
    1dd9:	83 ec 0c             	sub    $0xc,%esp
    1ddc:	50                   	push   %eax
    1ddd:	e8 de f2 ff ff       	call   10c0 <puts@plt>
    1de2:	83 c4 10             	add    $0x10,%esp
    1de5:	83 85 ec cf ff ff 01 	addl   $0x1,-0x3014(%ebp)
    1dec:	8b 85 ec cf ff ff    	mov    -0x3014(%ebp),%eax
    1df2:	8b 84 83 04 01 00 00 	mov    0x104(%ebx,%eax,4),%eax
    1df9:	85 c0                	test   %eax,%eax
    1dfb:	75 cf                	jne    1dcc <initialize_bomb+0x10c>
    1dfd:	83 ec 0c             	sub    $0xc,%esp
    1e00:	6a 08                	push   $0x8
    1e02:	e8 c9 f2 ff ff       	call   10d0 <exit@plt>
    1e07:	83 ec 0c             	sub    $0xc,%esp
    1e0a:	8d 85 f4 df ff ff    	lea    -0x200c(%ebp),%eax
    1e10:	50                   	push   %eax
    1e11:	e8 56 0d 00 00       	call   2b6c <init_driver>
    1e16:	83 c4 10             	add    $0x10,%esp
    1e19:	85 c0                	test   %eax,%eax
    1e1b:	79 23                	jns    1e40 <initialize_bomb+0x180>
    1e1d:	83 ec 08             	sub    $0x8,%esp
    1e20:	8d 85 f4 df ff ff    	lea    -0x200c(%ebp),%eax
    1e26:	50                   	push   %eax
    1e27:	8d 83 6f db ff ff    	lea    -0x2491(%ebx),%eax
    1e2d:	50                   	push   %eax
    1e2e:	e8 ad f1 ff ff       	call   fe0 <printf@plt>
    1e33:	83 c4 10             	add    $0x10,%esp
    1e36:	83 ec 0c             	sub    $0xc,%esp
    1e39:	6a 08                	push   $0x8
    1e3b:	e8 90 f2 ff ff       	call   10d0 <exit@plt>
    1e40:	90                   	nop
    1e41:	8b 45 f4             	mov    -0xc(%ebp),%eax
    1e44:	65 33 05 14 00 00 00 	xor    %gs:0x14,%eax
    1e4b:	74 05                	je     1e52 <initialize_bomb+0x192>
    1e4d:	e8 ee 10 00 00       	call   2f40 <__stack_chk_fail_local>
    1e52:	8b 5d fc             	mov    -0x4(%ebp),%ebx
    1e55:	c9                   	leave  
    1e56:	c3                   	ret    

00001e57 <validate>:
    1e57:	55                   	push   %ebp
    1e58:	89 e5                	mov    %esp,%ebp
    1e5a:	53                   	push   %ebx
    1e5b:	81 ec 14 40 00 00    	sub    $0x4014,%esp
    1e61:	e8 fa f3 ff ff       	call   1260 <__x86.get_pc_thunk.bx>
    1e66:	81 c3 d6 40 00 00    	add    $0x40d6,%ebx
    1e6c:	65 a1 14 00 00 00    	mov    %gs:0x14,%eax
    1e72:	89 45 f4             	mov    %eax,-0xc(%ebp)
    1e75:	31 c0                	xor    %eax,%eax
    1e77:	8d 83 08 41 00 00    	lea    0x4108(%ebx),%eax
    1e7d:	8b 00                	mov    (%eax),%eax
    1e7f:	85 c0                	test   %eax,%eax
    1e81:	75 17                	jne    1e9a <validate+0x43>
    1e83:	83 ec 0c             	sub    $0xc,%esp
    1e86:	8d 83 84 db ff ff    	lea    -0x247c(%ebx),%eax
    1e8c:	50                   	push   %eax
    1e8d:	e8 2e f2 ff ff       	call   10c0 <puts@plt>
    1e92:	83 c4 10             	add    $0x10,%esp
    1e95:	e9 5b 01 00 00       	jmp    1ff5 <validate+0x19e>
    1e9a:	83 7d 08 00          	cmpl   $0x0,0x8(%ebp)
    1e9e:	78 06                	js     1ea6 <validate+0x4f>
    1ea0:	83 7d 08 04          	cmpl   $0x4,0x8(%ebp)
    1ea4:	7e 17                	jle    1ebd <validate+0x66>
    1ea6:	83 ec 0c             	sub    $0xc,%esp
    1ea9:	8d 83 b0 db ff ff    	lea    -0x2450(%ebx),%eax
    1eaf:	50                   	push   %eax
    1eb0:	e8 0b f2 ff ff       	call   10c0 <puts@plt>
    1eb5:	83 c4 10             	add    $0x10,%esp
    1eb8:	e9 38 01 00 00       	jmp    1ff5 <validate+0x19e>
    1ebd:	8d 83 1c 41 00 00    	lea    0x411c(%ebx),%eax
    1ec3:	c7 00 01 00 00 00    	movl   $0x1,(%eax)
    1ec9:	8b 45 08             	mov    0x8(%ebp),%eax
    1ecc:	8b 84 83 dc 00 00 00 	mov    0xdc(%ebx,%eax,4),%eax
    1ed3:	8d 50 ff             	lea    -0x1(%eax),%edx
    1ed6:	8b 45 08             	mov    0x8(%ebp),%eax
    1ed9:	89 94 83 dc 00 00 00 	mov    %edx,0xdc(%ebx,%eax,4)
    1ee0:	8b 45 08             	mov    0x8(%ebp),%eax
    1ee3:	8b 84 83 dc 00 00 00 	mov    0xdc(%ebx,%eax,4),%eax
    1eea:	85 c0                	test   %eax,%eax
    1eec:	7e 17                	jle    1f05 <validate+0xae>
    1eee:	83 ec 0c             	sub    $0xc,%esp
    1ef1:	8d 83 d6 db ff ff    	lea    -0x242a(%ebx),%eax
    1ef7:	50                   	push   %eax
    1ef8:	e8 c3 f1 ff ff       	call   10c0 <puts@plt>
    1efd:	83 c4 10             	add    $0x10,%esp
    1f00:	e9 f0 00 00 00       	jmp    1ff5 <validate+0x19e>
    1f05:	83 ec 0c             	sub    $0xc,%esp
    1f08:	8d 83 e1 db ff ff    	lea    -0x241f(%ebx),%eax
    1f0e:	50                   	push   %eax
    1f0f:	e8 ac f1 ff ff       	call   10c0 <puts@plt>
    1f14:	83 c4 10             	add    $0x10,%esp
    1f17:	8d 83 0c 41 00 00    	lea    0x410c(%ebx),%eax
    1f1d:	8b 00                	mov    (%eax),%eax
    1f1f:	85 c0                	test   %eax,%eax
    1f21:	0f 84 bc 00 00 00    	je     1fe3 <validate+0x18c>
    1f27:	83 ec 0c             	sub    $0xc,%esp
    1f2a:	8d 83 64 41 00 00    	lea    0x4164(%ebx),%eax
    1f30:	50                   	push   %eax
    1f31:	e8 ca f1 ff ff       	call   1100 <strlen@plt>
    1f36:	83 c4 10             	add    $0x10,%esp
    1f39:	83 c0 20             	add    $0x20,%eax
    1f3c:	3d 00 20 00 00       	cmp    $0x2000,%eax
    1f41:	76 17                	jbe    1f5a <validate+0x103>
    1f43:	83 ec 0c             	sub    $0xc,%esp
    1f46:	8d 83 e8 db ff ff    	lea    -0x2418(%ebx),%eax
    1f4c:	50                   	push   %eax
    1f4d:	e8 6e f1 ff ff       	call   10c0 <puts@plt>
    1f52:	83 c4 10             	add    $0x10,%esp
    1f55:	e9 9b 00 00 00       	jmp    1ff5 <validate+0x19e>
    1f5a:	8d 83 18 41 00 00    	lea    0x4118(%ebx),%eax
    1f60:	8b 00                	mov    (%eax),%eax
    1f62:	83 ec 0c             	sub    $0xc,%esp
    1f65:	8d 93 64 41 00 00    	lea    0x4164(%ebx),%edx
    1f6b:	52                   	push   %edx
    1f6c:	50                   	push   %eax
    1f6d:	ff 75 08             	pushl  0x8(%ebp)
    1f70:	8d 83 1f dc ff ff    	lea    -0x23e1(%ebx),%eax
    1f76:	50                   	push   %eax
    1f77:	8d 85 f4 bf ff ff    	lea    -0x400c(%ebp),%eax
    1f7d:	50                   	push   %eax
    1f7e:	e8 1d f2 ff ff       	call   11a0 <sprintf@plt>
    1f83:	83 c4 20             	add    $0x20,%esp
    1f86:	8d 83 08 41 00 00    	lea    0x4108(%ebx),%eax
    1f8c:	8b 00                	mov    (%eax),%eax
    1f8e:	8d 95 f4 df ff ff    	lea    -0x200c(%ebp),%edx
    1f94:	52                   	push   %edx
    1f95:	6a 00                	push   $0x0
    1f97:	8d 95 f4 bf ff ff    	lea    -0x400c(%ebp),%edx
    1f9d:	52                   	push   %edx
    1f9e:	50                   	push   %eax
    1f9f:	e8 a5 0d 00 00       	call   2d49 <driver_post>
    1fa4:	83 c4 10             	add    $0x10,%esp
    1fa7:	89 85 f0 bf ff ff    	mov    %eax,-0x4010(%ebp)
    1fad:	83 bd f0 bf ff ff 00 	cmpl   $0x0,-0x4010(%ebp)
    1fb4:	75 14                	jne    1fca <validate+0x173>
    1fb6:	83 ec 0c             	sub    $0xc,%esp
    1fb9:	8d 83 28 dc ff ff    	lea    -0x23d8(%ebx),%eax
    1fbf:	50                   	push   %eax
    1fc0:	e8 fb f0 ff ff       	call   10c0 <puts@plt>
    1fc5:	83 c4 10             	add    $0x10,%esp
    1fc8:	eb 19                	jmp    1fe3 <validate+0x18c>
    1fca:	83 ec 08             	sub    $0x8,%esp
    1fcd:	8d 85 f4 df ff ff    	lea    -0x200c(%ebp),%eax
    1fd3:	50                   	push   %eax
    1fd4:	8d 83 58 dc ff ff    	lea    -0x23a8(%ebx),%eax
    1fda:	50                   	push   %eax
    1fdb:	e8 00 f0 ff ff       	call   fe0 <printf@plt>
    1fe0:	83 c4 10             	add    $0x10,%esp
    1fe3:	83 ec 0c             	sub    $0xc,%esp
    1fe6:	8d 83 96 dc ff ff    	lea    -0x236a(%ebx),%eax
    1fec:	50                   	push   %eax
    1fed:	e8 ce f0 ff ff       	call   10c0 <puts@plt>
    1ff2:	83 c4 10             	add    $0x10,%esp
    1ff5:	8b 45 f4             	mov    -0xc(%ebp),%eax
    1ff8:	65 33 05 14 00 00 00 	xor    %gs:0x14,%eax
    1fff:	74 05                	je     2006 <validate+0x1af>
    2001:	e8 3a 0f 00 00       	call   2f40 <__stack_chk_fail_local>
    2006:	8b 5d fc             	mov    -0x4(%ebp),%ebx
    2009:	c9                   	leave  
    200a:	c3                   	ret    

0000200b <sigalrm_handler>:
    200b:	55                   	push   %ebp
    200c:	89 e5                	mov    %esp,%ebp
    200e:	53                   	push   %ebx
    200f:	83 ec 04             	sub    $0x4,%esp
    2012:	e8 49 f2 ff ff       	call   1260 <__x86.get_pc_thunk.bx>
    2017:	81 c3 25 3f 00 00    	add    $0x3f25,%ebx
    201d:	83 ec 08             	sub    $0x8,%esp
    2020:	6a 02                	push   $0x2
    2022:	8d 83 a0 dc ff ff    	lea    -0x2360(%ebx),%eax
    2028:	50                   	push   %eax
    2029:	e8 b2 ef ff ff       	call   fe0 <printf@plt>
    202e:	83 c4 10             	add    $0x10,%esp
    2031:	83 ec 0c             	sub    $0xc,%esp
    2034:	6a 01                	push   $0x1
    2036:	e8 95 f0 ff ff       	call   10d0 <exit@plt>

0000203b <rio_readinitb>:
    203b:	55                   	push   %ebp
    203c:	89 e5                	mov    %esp,%ebp
    203e:	e8 1b fc ff ff       	call   1c5e <__x86.get_pc_thunk.ax>
    2043:	05 f9 3e 00 00       	add    $0x3ef9,%eax
    2048:	8b 45 08             	mov    0x8(%ebp),%eax
    204b:	8b 55 0c             	mov    0xc(%ebp),%edx
    204e:	89 10                	mov    %edx,(%eax)
    2050:	8b 45 08             	mov    0x8(%ebp),%eax
    2053:	c7 40 04 00 00 00 00 	movl   $0x0,0x4(%eax)
    205a:	8b 45 08             	mov    0x8(%ebp),%eax
    205d:	8d 50 0c             	lea    0xc(%eax),%edx
    2060:	8b 45 08             	mov    0x8(%ebp),%eax
    2063:	89 50 08             	mov    %edx,0x8(%eax)
    2066:	90                   	nop
    2067:	5d                   	pop    %ebp
    2068:	c3                   	ret    

00002069 <rio_read>:
    2069:	55                   	push   %ebp
    206a:	89 e5                	mov    %esp,%ebp
    206c:	53                   	push   %ebx
    206d:	83 ec 14             	sub    $0x14,%esp
    2070:	e8 eb f1 ff ff       	call   1260 <__x86.get_pc_thunk.bx>
    2075:	81 c3 c7 3e 00 00    	add    $0x3ec7,%ebx
    207b:	eb 5f                	jmp    20dc <rio_read+0x73>
    207d:	8b 45 08             	mov    0x8(%ebp),%eax
    2080:	8d 50 0c             	lea    0xc(%eax),%edx
    2083:	8b 45 08             	mov    0x8(%ebp),%eax
    2086:	8b 00                	mov    (%eax),%eax
    2088:	83 ec 04             	sub    $0x4,%esp
    208b:	68 00 20 00 00       	push   $0x2000
    2090:	52                   	push   %edx
    2091:	50                   	push   %eax
    2092:	e8 29 ef ff ff       	call   fc0 <read@plt>
    2097:	83 c4 10             	add    $0x10,%esp
    209a:	89 c2                	mov    %eax,%edx
    209c:	8b 45 08             	mov    0x8(%ebp),%eax
    209f:	89 50 04             	mov    %edx,0x4(%eax)
    20a2:	8b 45 08             	mov    0x8(%ebp),%eax
    20a5:	8b 40 04             	mov    0x4(%eax),%eax
    20a8:	85 c0                	test   %eax,%eax
    20aa:	79 13                	jns    20bf <rio_read+0x56>
    20ac:	e8 bf f0 ff ff       	call   1170 <__errno_location@plt>
    20b1:	8b 00                	mov    (%eax),%eax
    20b3:	83 f8 04             	cmp    $0x4,%eax
    20b6:	74 24                	je     20dc <rio_read+0x73>
    20b8:	b8 ff ff ff ff       	mov    $0xffffffff,%eax
    20bd:	eb 7f                	jmp    213e <rio_read+0xd5>
    20bf:	8b 45 08             	mov    0x8(%ebp),%eax
    20c2:	8b 40 04             	mov    0x4(%eax),%eax
    20c5:	85 c0                	test   %eax,%eax
    20c7:	75 07                	jne    20d0 <rio_read+0x67>
    20c9:	b8 00 00 00 00       	mov    $0x0,%eax
    20ce:	eb 6e                	jmp    213e <rio_read+0xd5>
    20d0:	8b 45 08             	mov    0x8(%ebp),%eax
    20d3:	8d 50 0c             	lea    0xc(%eax),%edx
    20d6:	8b 45 08             	mov    0x8(%ebp),%eax
    20d9:	89 50 08             	mov    %edx,0x8(%eax)
    20dc:	8b 45 08             	mov    0x8(%ebp),%eax
    20df:	8b 40 04             	mov    0x4(%eax),%eax
    20e2:	85 c0                	test   %eax,%eax
    20e4:	7e 97                	jle    207d <rio_read+0x14>
    20e6:	8b 45 10             	mov    0x10(%ebp),%eax
    20e9:	89 45 f4             	mov    %eax,-0xc(%ebp)
    20ec:	8b 45 08             	mov    0x8(%ebp),%eax
    20ef:	8b 40 04             	mov    0x4(%eax),%eax
    20f2:	39 45 10             	cmp    %eax,0x10(%ebp)
    20f5:	76 09                	jbe    2100 <rio_read+0x97>
    20f7:	8b 45 08             	mov    0x8(%ebp),%eax
    20fa:	8b 40 04             	mov    0x4(%eax),%eax
    20fd:	89 45 f4             	mov    %eax,-0xc(%ebp)
    2100:	8b 55 f4             	mov    -0xc(%ebp),%edx
    2103:	8b 45 08             	mov    0x8(%ebp),%eax
    2106:	8b 40 08             	mov    0x8(%eax),%eax
    2109:	83 ec 04             	sub    $0x4,%esp
    210c:	52                   	push   %edx
    210d:	50                   	push   %eax
    210e:	ff 75 0c             	pushl  0xc(%ebp)
    2111:	e8 ea ee ff ff       	call   1000 <memcpy@plt>
    2116:	83 c4 10             	add    $0x10,%esp
    2119:	8b 45 08             	mov    0x8(%ebp),%eax
    211c:	8b 50 08             	mov    0x8(%eax),%edx
    211f:	8b 45 f4             	mov    -0xc(%ebp),%eax
    2122:	01 c2                	add    %eax,%edx
    2124:	8b 45 08             	mov    0x8(%ebp),%eax
    2127:	89 50 08             	mov    %edx,0x8(%eax)
    212a:	8b 45 08             	mov    0x8(%ebp),%eax
    212d:	8b 40 04             	mov    0x4(%eax),%eax
    2130:	2b 45 f4             	sub    -0xc(%ebp),%eax
    2133:	89 c2                	mov    %eax,%edx
    2135:	8b 45 08             	mov    0x8(%ebp),%eax
    2138:	89 50 04             	mov    %edx,0x4(%eax)
    213b:	8b 45 f4             	mov    -0xc(%ebp),%eax
    213e:	8b 5d fc             	mov    -0x4(%ebp),%ebx
    2141:	c9                   	leave  
    2142:	c3                   	ret    

00002143 <rio_readlineb>:
    2143:	55                   	push   %ebp
    2144:	89 e5                	mov    %esp,%ebp
    2146:	83 ec 38             	sub    $0x38,%esp
    2149:	e8 10 fb ff ff       	call   1c5e <__x86.get_pc_thunk.ax>
    214e:	05 ee 3d 00 00       	add    $0x3dee,%eax
    2153:	8b 45 08             	mov    0x8(%ebp),%eax
    2156:	89 45 d4             	mov    %eax,-0x2c(%ebp)
    2159:	8b 45 0c             	mov    0xc(%ebp),%eax
    215c:	89 45 d0             	mov    %eax,-0x30(%ebp)
    215f:	65 a1 14 00 00 00    	mov    %gs:0x14,%eax
    2165:	89 45 f4             	mov    %eax,-0xc(%ebp)
    2168:	31 c0                	xor    %eax,%eax
    216a:	8b 45 d0             	mov    -0x30(%ebp),%eax
    216d:	89 45 ec             	mov    %eax,-0x14(%ebp)
    2170:	c7 45 e8 01 00 00 00 	movl   $0x1,-0x18(%ebp)
    2177:	eb 54                	jmp    21cd <rio_readlineb+0x8a>
    2179:	83 ec 04             	sub    $0x4,%esp
    217c:	6a 01                	push   $0x1
    217e:	8d 45 e7             	lea    -0x19(%ebp),%eax
    2181:	50                   	push   %eax
    2182:	ff 75 d4             	pushl  -0x2c(%ebp)
    2185:	e8 df fe ff ff       	call   2069 <rio_read>
    218a:	83 c4 10             	add    $0x10,%esp
    218d:	89 45 f0             	mov    %eax,-0x10(%ebp)
    2190:	83 7d f0 01          	cmpl   $0x1,-0x10(%ebp)
    2194:	75 19                	jne    21af <rio_readlineb+0x6c>
    2196:	8b 45 ec             	mov    -0x14(%ebp),%eax
    2199:	8d 50 01             	lea    0x1(%eax),%edx
    219c:	89 55 ec             	mov    %edx,-0x14(%ebp)
    219f:	0f b6 55 e7          	movzbl -0x19(%ebp),%edx
    21a3:	88 10                	mov    %dl,(%eax)
    21a5:	0f b6 45 e7          	movzbl -0x19(%ebp),%eax
    21a9:	3c 0a                	cmp    $0xa,%al
    21ab:	75 1c                	jne    21c9 <rio_readlineb+0x86>
    21ad:	eb 29                	jmp    21d8 <rio_readlineb+0x95>
    21af:	83 7d f0 00          	cmpl   $0x0,-0x10(%ebp)
    21b3:	75 0d                	jne    21c2 <rio_readlineb+0x7f>
    21b5:	83 7d e8 01          	cmpl   $0x1,-0x18(%ebp)
    21b9:	75 1c                	jne    21d7 <rio_readlineb+0x94>
    21bb:	b8 00 00 00 00       	mov    $0x0,%eax
    21c0:	eb 1f                	jmp    21e1 <rio_readlineb+0x9e>
    21c2:	b8 ff ff ff ff       	mov    $0xffffffff,%eax
    21c7:	eb 18                	jmp    21e1 <rio_readlineb+0x9e>
    21c9:	83 45 e8 01          	addl   $0x1,-0x18(%ebp)
    21cd:	8b 45 e8             	mov    -0x18(%ebp),%eax
    21d0:	39 45 10             	cmp    %eax,0x10(%ebp)
    21d3:	77 a4                	ja     2179 <rio_readlineb+0x36>
    21d5:	eb 01                	jmp    21d8 <rio_readlineb+0x95>
    21d7:	90                   	nop
    21d8:	8b 45 ec             	mov    -0x14(%ebp),%eax
    21db:	c6 00 00             	movb   $0x0,(%eax)
    21de:	8b 45 e8             	mov    -0x18(%ebp),%eax
    21e1:	8b 4d f4             	mov    -0xc(%ebp),%ecx
    21e4:	65 33 0d 14 00 00 00 	xor    %gs:0x14,%ecx
    21eb:	74 05                	je     21f2 <rio_readlineb+0xaf>
    21ed:	e8 4e 0d 00 00       	call   2f40 <__stack_chk_fail_local>
    21f2:	c9                   	leave  
    21f3:	c3                   	ret    

000021f4 <rio_writen>:
    21f4:	55                   	push   %ebp
    21f5:	89 e5                	mov    %esp,%ebp
    21f7:	53                   	push   %ebx
    21f8:	83 ec 14             	sub    $0x14,%esp
    21fb:	e8 60 f0 ff ff       	call   1260 <__x86.get_pc_thunk.bx>
    2200:	81 c3 3c 3d 00 00    	add    $0x3d3c,%ebx
    2206:	8b 45 10             	mov    0x10(%ebp),%eax
    2209:	89 45 ec             	mov    %eax,-0x14(%ebp)
    220c:	8b 45 0c             	mov    0xc(%ebp),%eax
    220f:	89 45 f4             	mov    %eax,-0xc(%ebp)
    2212:	eb 45                	jmp    2259 <rio_writen+0x65>
    2214:	83 ec 04             	sub    $0x4,%esp
    2217:	ff 75 ec             	pushl  -0x14(%ebp)
    221a:	ff 75 f4             	pushl  -0xc(%ebp)
    221d:	ff 75 08             	pushl  0x8(%ebp)
    2220:	e8 fb ee ff ff       	call   1120 <write@plt>
    2225:	83 c4 10             	add    $0x10,%esp
    2228:	89 45 f0             	mov    %eax,-0x10(%ebp)
    222b:	83 7d f0 00          	cmpl   $0x0,-0x10(%ebp)
    222f:	7f 1c                	jg     224d <rio_writen+0x59>
    2231:	e8 3a ef ff ff       	call   1170 <__errno_location@plt>
    2236:	8b 00                	mov    (%eax),%eax
    2238:	83 f8 04             	cmp    $0x4,%eax
    223b:	75 09                	jne    2246 <rio_writen+0x52>
    223d:	c7 45 f0 00 00 00 00 	movl   $0x0,-0x10(%ebp)
    2244:	eb 07                	jmp    224d <rio_writen+0x59>
    2246:	b8 ff ff ff ff       	mov    $0xffffffff,%eax
    224b:	eb 15                	jmp    2262 <rio_writen+0x6e>
    224d:	8b 45 f0             	mov    -0x10(%ebp),%eax
    2250:	29 45 ec             	sub    %eax,-0x14(%ebp)
    2253:	8b 45 f0             	mov    -0x10(%ebp),%eax
    2256:	01 45 f4             	add    %eax,-0xc(%ebp)
    2259:	83 7d ec 00          	cmpl   $0x0,-0x14(%ebp)
    225d:	75 b5                	jne    2214 <rio_writen+0x20>
    225f:	8b 45 10             	mov    0x10(%ebp),%eax
    2262:	8b 5d fc             	mov    -0x4(%ebp),%ebx
    2265:	c9                   	leave  
    2266:	c3                   	ret    

00002267 <urlencode>:
    2267:	55                   	push   %ebp
    2268:	89 e5                	mov    %esp,%ebp
    226a:	53                   	push   %ebx
    226b:	83 ec 24             	sub    $0x24,%esp
    226e:	e8 ed ef ff ff       	call   1260 <__x86.get_pc_thunk.bx>
    2273:	81 c3 c9 3c 00 00    	add    $0x3cc9,%ebx
    2279:	8b 45 08             	mov    0x8(%ebp),%eax
    227c:	89 45 e4             	mov    %eax,-0x1c(%ebp)
    227f:	8b 45 0c             	mov    0xc(%ebp),%eax
    2282:	89 45 e0             	mov    %eax,-0x20(%ebp)
    2285:	65 a1 14 00 00 00    	mov    %gs:0x14,%eax
    228b:	89 45 f4             	mov    %eax,-0xc(%ebp)
    228e:	31 c0                	xor    %eax,%eax
    2290:	83 ec 0c             	sub    $0xc,%esp
    2293:	ff 75 e4             	pushl  -0x1c(%ebp)
    2296:	e8 65 ee ff ff       	call   1100 <strlen@plt>
    229b:	83 c4 10             	add    $0x10,%esp
    229e:	89 45 e8             	mov    %eax,-0x18(%ebp)
    22a1:	e9 10 01 00 00       	jmp    23b6 <urlencode+0x14f>
    22a6:	8b 45 e4             	mov    -0x1c(%ebp),%eax
    22a9:	0f b6 00             	movzbl (%eax),%eax
    22ac:	3c 2a                	cmp    $0x2a,%al
    22ae:	74 5a                	je     230a <urlencode+0xa3>
    22b0:	8b 45 e4             	mov    -0x1c(%ebp),%eax
    22b3:	0f b6 00             	movzbl (%eax),%eax
    22b6:	3c 2d                	cmp    $0x2d,%al
    22b8:	74 50                	je     230a <urlencode+0xa3>
    22ba:	8b 45 e4             	mov    -0x1c(%ebp),%eax
    22bd:	0f b6 00             	movzbl (%eax),%eax
    22c0:	3c 2e                	cmp    $0x2e,%al
    22c2:	74 46                	je     230a <urlencode+0xa3>
    22c4:	8b 45 e4             	mov    -0x1c(%ebp),%eax
    22c7:	0f b6 00             	movzbl (%eax),%eax
    22ca:	3c 5f                	cmp    $0x5f,%al
    22cc:	74 3c                	je     230a <urlencode+0xa3>
    22ce:	8b 45 e4             	mov    -0x1c(%ebp),%eax
    22d1:	0f b6 00             	movzbl (%eax),%eax
    22d4:	3c 2f                	cmp    $0x2f,%al
    22d6:	76 0a                	jbe    22e2 <urlencode+0x7b>
    22d8:	8b 45 e4             	mov    -0x1c(%ebp),%eax
    22db:	0f b6 00             	movzbl (%eax),%eax
    22de:	3c 39                	cmp    $0x39,%al
    22e0:	76 28                	jbe    230a <urlencode+0xa3>
    22e2:	8b 45 e4             	mov    -0x1c(%ebp),%eax
    22e5:	0f b6 00             	movzbl (%eax),%eax
    22e8:	3c 40                	cmp    $0x40,%al
    22ea:	76 0a                	jbe    22f6 <urlencode+0x8f>
    22ec:	8b 45 e4             	mov    -0x1c(%ebp),%eax
    22ef:	0f b6 00             	movzbl (%eax),%eax
    22f2:	3c 5a                	cmp    $0x5a,%al
    22f4:	76 14                	jbe    230a <urlencode+0xa3>
    22f6:	8b 45 e4             	mov    -0x1c(%ebp),%eax
    22f9:	0f b6 00             	movzbl (%eax),%eax
    22fc:	3c 60                	cmp    $0x60,%al
    22fe:	76 20                	jbe    2320 <urlencode+0xb9>
    2300:	8b 45 e4             	mov    -0x1c(%ebp),%eax
    2303:	0f b6 00             	movzbl (%eax),%eax
    2306:	3c 7a                	cmp    $0x7a,%al
    2308:	77 16                	ja     2320 <urlencode+0xb9>
    230a:	8b 45 e0             	mov    -0x20(%ebp),%eax
    230d:	8d 50 01             	lea    0x1(%eax),%edx
    2310:	89 55 e0             	mov    %edx,-0x20(%ebp)
    2313:	8b 55 e4             	mov    -0x1c(%ebp),%edx
    2316:	0f b6 12             	movzbl (%edx),%edx
    2319:	88 10                	mov    %dl,(%eax)
    231b:	e9 92 00 00 00       	jmp    23b2 <urlencode+0x14b>
    2320:	8b 45 e4             	mov    -0x1c(%ebp),%eax
    2323:	0f b6 00             	movzbl (%eax),%eax
    2326:	3c 20                	cmp    $0x20,%al
    2328:	75 0e                	jne    2338 <urlencode+0xd1>
    232a:	8b 45 e0             	mov    -0x20(%ebp),%eax
    232d:	8d 50 01             	lea    0x1(%eax),%edx
    2330:	89 55 e0             	mov    %edx,-0x20(%ebp)
    2333:	c6 00 2b             	movb   $0x2b,(%eax)
    2336:	eb 7a                	jmp    23b2 <urlencode+0x14b>
    2338:	8b 45 e4             	mov    -0x1c(%ebp),%eax
    233b:	0f b6 00             	movzbl (%eax),%eax
    233e:	3c 1f                	cmp    $0x1f,%al
    2340:	76 0a                	jbe    234c <urlencode+0xe5>
    2342:	8b 45 e4             	mov    -0x1c(%ebp),%eax
    2345:	0f b6 00             	movzbl (%eax),%eax
    2348:	84 c0                	test   %al,%al
    234a:	79 0a                	jns    2356 <urlencode+0xef>
    234c:	8b 45 e4             	mov    -0x1c(%ebp),%eax
    234f:	0f b6 00             	movzbl (%eax),%eax
    2352:	3c 09                	cmp    $0x9,%al
    2354:	75 55                	jne    23ab <urlencode+0x144>
    2356:	8b 45 e4             	mov    -0x1c(%ebp),%eax
    2359:	0f b6 00             	movzbl (%eax),%eax
    235c:	0f b6 c0             	movzbl %al,%eax
    235f:	83 ec 04             	sub    $0x4,%esp
    2362:	50                   	push   %eax
    2363:	8d 83 c4 dc ff ff    	lea    -0x233c(%ebx),%eax
    2369:	50                   	push   %eax
    236a:	8d 45 ec             	lea    -0x14(%ebp),%eax
    236d:	50                   	push   %eax
    236e:	e8 2d ee ff ff       	call   11a0 <sprintf@plt>
    2373:	83 c4 10             	add    $0x10,%esp
    2376:	0f b6 4d ec          	movzbl -0x14(%ebp),%ecx
    237a:	8b 45 e0             	mov    -0x20(%ebp),%eax
    237d:	8d 50 01             	lea    0x1(%eax),%edx
    2380:	89 55 e0             	mov    %edx,-0x20(%ebp)
    2383:	89 ca                	mov    %ecx,%edx
    2385:	88 10                	mov    %dl,(%eax)
    2387:	0f b6 4d ed          	movzbl -0x13(%ebp),%ecx
    238b:	8b 45 e0             	mov    -0x20(%ebp),%eax
    238e:	8d 50 01             	lea    0x1(%eax),%edx
    2391:	89 55 e0             	mov    %edx,-0x20(%ebp)
    2394:	89 ca                	mov    %ecx,%edx
    2396:	88 10                	mov    %dl,(%eax)
    2398:	0f b6 4d ee          	movzbl -0x12(%ebp),%ecx
    239c:	8b 45 e0             	mov    -0x20(%ebp),%eax
    239f:	8d 50 01             	lea    0x1(%eax),%edx
    23a2:	89 55 e0             	mov    %edx,-0x20(%ebp)
    23a5:	89 ca                	mov    %ecx,%edx
    23a7:	88 10                	mov    %dl,(%eax)
    23a9:	eb 07                	jmp    23b2 <urlencode+0x14b>
    23ab:	b8 ff ff ff ff       	mov    $0xffffffff,%eax
    23b0:	eb 1a                	jmp    23cc <urlencode+0x165>
    23b2:	83 45 e4 01          	addl   $0x1,-0x1c(%ebp)
    23b6:	8b 45 e8             	mov    -0x18(%ebp),%eax
    23b9:	8d 50 ff             	lea    -0x1(%eax),%edx
    23bc:	89 55 e8             	mov    %edx,-0x18(%ebp)
    23bf:	85 c0                	test   %eax,%eax
    23c1:	0f 85 df fe ff ff    	jne    22a6 <urlencode+0x3f>
    23c7:	b8 00 00 00 00       	mov    $0x0,%eax
    23cc:	8b 4d f4             	mov    -0xc(%ebp),%ecx
    23cf:	65 33 0d 14 00 00 00 	xor    %gs:0x14,%ecx
    23d6:	74 05                	je     23dd <urlencode+0x176>
    23d8:	e8 63 0b 00 00       	call   2f40 <__stack_chk_fail_local>
    23dd:	8b 5d fc             	mov    -0x4(%ebp),%ebx
    23e0:	c9                   	leave  
    23e1:	c3                   	ret    

000023e2 <submitr>:
    23e2:	55                   	push   %ebp
    23e3:	89 e5                	mov    %esp,%ebp
    23e5:	57                   	push   %edi
    23e6:	56                   	push   %esi
    23e7:	53                   	push   %ebx
    23e8:	81 ec 6c a0 00 00    	sub    $0xa06c,%esp
    23ee:	e8 6d ee ff ff       	call   1260 <__x86.get_pc_thunk.bx>
    23f3:	81 c3 49 3b 00 00    	add    $0x3b49,%ebx
    23f9:	8b 45 08             	mov    0x8(%ebp),%eax
    23fc:	89 85 a4 5f ff ff    	mov    %eax,-0xa05c(%ebp)
    2402:	8b 45 10             	mov    0x10(%ebp),%eax
    2405:	89 85 a0 5f ff ff    	mov    %eax,-0xa060(%ebp)
    240b:	8b 45 14             	mov    0x14(%ebp),%eax
    240e:	89 85 9c 5f ff ff    	mov    %eax,-0xa064(%ebp)
    2414:	8b 45 18             	mov    0x18(%ebp),%eax
    2417:	89 85 98 5f ff ff    	mov    %eax,-0xa068(%ebp)
    241d:	8b 45 1c             	mov    0x1c(%ebp),%eax
    2420:	89 85 94 5f ff ff    	mov    %eax,-0xa06c(%ebp)
    2426:	8b 45 20             	mov    0x20(%ebp),%eax
    2429:	89 85 90 5f ff ff    	mov    %eax,-0xa070(%ebp)
    242f:	65 a1 14 00 00 00    	mov    %gs:0x14,%eax
    2435:	89 45 e4             	mov    %eax,-0x1c(%ebp)
    2438:	31 c0                	xor    %eax,%eax
    243a:	c7 85 b4 5f ff ff 00 	movl   $0x0,-0xa04c(%ebp)
    2441:	00 00 00 
    2444:	83 ec 04             	sub    $0x4,%esp
    2447:	6a 00                	push   $0x0
    2449:	6a 01                	push   $0x1
    244b:	6a 02                	push   $0x2
    244d:	e8 5e ed ff ff       	call   11b0 <socket@plt>
    2452:	83 c4 10             	add    $0x10,%esp
    2455:	89 85 b8 5f ff ff    	mov    %eax,-0xa048(%ebp)
    245b:	83 bd b8 5f ff ff 00 	cmpl   $0x0,-0xa048(%ebp)
    2462:	79 54                	jns    24b8 <submitr+0xd6>
    2464:	8b 85 90 5f ff ff    	mov    -0xa070(%ebp),%eax
    246a:	c7 00 45 72 72 6f    	movl   $0x6f727245,(%eax)
    2470:	c7 40 04 72 3a 20 43 	movl   $0x43203a72,0x4(%eax)
    2477:	c7 40 08 6c 69 65 6e 	movl   $0x6e65696c,0x8(%eax)
    247e:	c7 40 0c 74 20 75 6e 	movl   $0x6e752074,0xc(%eax)
    2485:	c7 40 10 61 62 6c 65 	movl   $0x656c6261,0x10(%eax)
    248c:	c7 40 14 20 74 6f 20 	movl   $0x206f7420,0x14(%eax)
    2493:	c7 40 18 63 72 65 61 	movl   $0x61657263,0x18(%eax)
    249a:	c7 40 1c 74 65 20 73 	movl   $0x73206574,0x1c(%eax)
    24a1:	c7 40 20 6f 63 6b 65 	movl   $0x656b636f,0x20(%eax)
    24a8:	66 c7 40 24 74 00    	movw   $0x74,0x24(%eax)
    24ae:	b8 ff ff ff ff       	mov    $0xffffffff,%eax
    24b3:	e9 4b 06 00 00       	jmp    2b03 <submitr+0x721>
    24b8:	83 ec 0c             	sub    $0xc,%esp
    24bb:	ff b5 a4 5f ff ff    	pushl  -0xa05c(%ebp)
    24c1:	e8 0a ed ff ff       	call   11d0 <gethostbyname@plt>
    24c6:	83 c4 10             	add    $0x10,%esp
    24c9:	89 85 bc 5f ff ff    	mov    %eax,-0xa044(%ebp)
    24cf:	83 bd bc 5f ff ff 00 	cmpl   $0x0,-0xa044(%ebp)
    24d6:	75 39                	jne    2511 <submitr+0x12f>
    24d8:	83 ec 04             	sub    $0x4,%esp
    24db:	ff b5 a4 5f ff ff    	pushl  -0xa05c(%ebp)
    24e1:	8d 83 cc dc ff ff    	lea    -0x2334(%ebx),%eax
    24e7:	50                   	push   %eax
    24e8:	ff b5 90 5f ff ff    	pushl  -0xa070(%ebp)
    24ee:	e8 ad ec ff ff       	call   11a0 <sprintf@plt>
    24f3:	83 c4 10             	add    $0x10,%esp
    24f6:	83 ec 0c             	sub    $0xc,%esp
    24f9:	ff b5 b8 5f ff ff    	pushl  -0xa048(%ebp)
    24ff:	e8 ec ec ff ff       	call   11f0 <close@plt>
    2504:	83 c4 10             	add    $0x10,%esp
    2507:	b8 ff ff ff ff       	mov    $0xffffffff,%eax
    250c:	e9 f2 05 00 00       	jmp    2b03 <submitr+0x721>
    2511:	83 ec 08             	sub    $0x8,%esp
    2514:	6a 10                	push   $0x10
    2516:	8d 85 c8 5f ff ff    	lea    -0xa038(%ebp),%eax
    251c:	50                   	push   %eax
    251d:	e8 ee ea ff ff       	call   1010 <bzero@plt>
    2522:	83 c4 10             	add    $0x10,%esp
    2525:	66 c7 85 c8 5f ff ff 	movw   $0x2,-0xa038(%ebp)
    252c:	02 00 
    252e:	8b 85 bc 5f ff ff    	mov    -0xa044(%ebp),%eax
    2534:	8b 40 0c             	mov    0xc(%eax),%eax
    2537:	89 c2                	mov    %eax,%edx
    2539:	8b 85 bc 5f ff ff    	mov    -0xa044(%ebp),%eax
    253f:	8b 40 10             	mov    0x10(%eax),%eax
    2542:	8b 00                	mov    (%eax),%eax
    2544:	83 ec 04             	sub    $0x4,%esp
    2547:	52                   	push   %edx
    2548:	8d 95 c8 5f ff ff    	lea    -0xa038(%ebp),%edx
    254e:	83 c2 04             	add    $0x4,%edx
    2551:	52                   	push   %edx
    2552:	50                   	push   %eax
    2553:	e8 28 eb ff ff       	call   1080 <bcopy@plt>
    2558:	83 c4 10             	add    $0x10,%esp
    255b:	8b 45 0c             	mov    0xc(%ebp),%eax
    255e:	0f b7 c0             	movzwl %ax,%eax
    2561:	83 ec 0c             	sub    $0xc,%esp
    2564:	50                   	push   %eax
    2565:	e8 f6 ea ff ff       	call   1060 <htons@plt>
    256a:	83 c4 10             	add    $0x10,%esp
    256d:	66 89 85 ca 5f ff ff 	mov    %ax,-0xa036(%ebp)
    2574:	83 ec 04             	sub    $0x4,%esp
    2577:	6a 10                	push   $0x10
    2579:	8d 85 c8 5f ff ff    	lea    -0xa038(%ebp),%eax
    257f:	50                   	push   %eax
    2580:	ff b5 b8 5f ff ff    	pushl  -0xa048(%ebp)
    2586:	e8 55 ec ff ff       	call   11e0 <connect@plt>
    258b:	83 c4 10             	add    $0x10,%esp
    258e:	85 c0                	test   %eax,%eax
    2590:	79 39                	jns    25cb <submitr+0x1e9>
    2592:	83 ec 04             	sub    $0x4,%esp
    2595:	ff b5 a4 5f ff ff    	pushl  -0xa05c(%ebp)
    259b:	8d 83 f8 dc ff ff    	lea    -0x2308(%ebx),%eax
    25a1:	50                   	push   %eax
    25a2:	ff b5 90 5f ff ff    	pushl  -0xa070(%ebp)
    25a8:	e8 f3 eb ff ff       	call   11a0 <sprintf@plt>
    25ad:	83 c4 10             	add    $0x10,%esp
    25b0:	83 ec 0c             	sub    $0xc,%esp
    25b3:	ff b5 b8 5f ff ff    	pushl  -0xa048(%ebp)
    25b9:	e8 32 ec ff ff       	call   11f0 <close@plt>
    25be:	83 c4 10             	add    $0x10,%esp
    25c1:	b8 ff ff ff ff       	mov    $0xffffffff,%eax
    25c6:	e9 38 05 00 00       	jmp    2b03 <submitr+0x721>
    25cb:	83 ec 0c             	sub    $0xc,%esp
    25ce:	ff b5 94 5f ff ff    	pushl  -0xa06c(%ebp)
    25d4:	e8 27 eb ff ff       	call   1100 <strlen@plt>
    25d9:	83 c4 10             	add    $0x10,%esp
    25dc:	89 85 c0 5f ff ff    	mov    %eax,-0xa040(%ebp)
    25e2:	83 ec 0c             	sub    $0xc,%esp
    25e5:	ff b5 a0 5f ff ff    	pushl  -0xa060(%ebp)
    25eb:	e8 10 eb ff ff       	call   1100 <strlen@plt>
    25f0:	83 c4 10             	add    $0x10,%esp
    25f3:	89 c6                	mov    %eax,%esi
    25f5:	83 ec 0c             	sub    $0xc,%esp
    25f8:	ff b5 9c 5f ff ff    	pushl  -0xa064(%ebp)
    25fe:	e8 fd ea ff ff       	call   1100 <strlen@plt>
    2603:	83 c4 10             	add    $0x10,%esp
    2606:	01 c6                	add    %eax,%esi
    2608:	83 ec 0c             	sub    $0xc,%esp
    260b:	ff b5 98 5f ff ff    	pushl  -0xa068(%ebp)
    2611:	e8 ea ea ff ff       	call   1100 <strlen@plt>
    2616:	83 c4 10             	add    $0x10,%esp
    2619:	8d 0c 06             	lea    (%esi,%eax,1),%ecx
    261c:	8b 95 c0 5f ff ff    	mov    -0xa040(%ebp),%edx
    2622:	89 d0                	mov    %edx,%eax
    2624:	01 c0                	add    %eax,%eax
    2626:	01 d0                	add    %edx,%eax
    2628:	01 c8                	add    %ecx,%eax
    262a:	83 e8 80             	sub    $0xffffff80,%eax
    262d:	89 85 c4 5f ff ff    	mov    %eax,-0xa03c(%ebp)
    2633:	81 bd c4 5f ff ff 00 	cmpl   $0x2000,-0xa03c(%ebp)
    263a:	20 00 00 
    263d:	0f 86 82 00 00 00    	jbe    26c5 <submitr+0x2e3>
    2643:	8b 85 90 5f ff ff    	mov    -0xa070(%ebp),%eax
    2649:	c7 00 45 72 72 6f    	movl   $0x6f727245,(%eax)
    264f:	c7 40 04 72 3a 20 52 	movl   $0x52203a72,0x4(%eax)
    2656:	c7 40 08 65 73 75 6c 	movl   $0x6c757365,0x8(%eax)
    265d:	c7 40 0c 74 20 73 74 	movl   $0x74732074,0xc(%eax)
    2664:	c7 40 10 72 69 6e 67 	movl   $0x676e6972,0x10(%eax)
    266b:	c7 40 14 20 74 6f 6f 	movl   $0x6f6f7420,0x14(%eax)
    2672:	c7 40 18 20 6c 61 72 	movl   $0x72616c20,0x18(%eax)
    2679:	c7 40 1c 67 65 2e 20 	movl   $0x202e6567,0x1c(%eax)
    2680:	c7 40 20 49 6e 63 72 	movl   $0x72636e49,0x20(%eax)
    2687:	c7 40 24 65 61 73 65 	movl   $0x65736165,0x24(%eax)
    268e:	c7 40 28 20 53 55 42 	movl   $0x42555320,0x28(%eax)
    2695:	c7 40 2c 4d 49 54 52 	movl   $0x5254494d,0x2c(%eax)
    269c:	c7 40 30 5f 4d 41 58 	movl   $0x58414d5f,0x30(%eax)
    26a3:	c7 40 34 42 55 46 00 	movl   $0x465542,0x34(%eax)
    26aa:	83 ec 0c             	sub    $0xc,%esp
    26ad:	ff b5 b8 5f ff ff    	pushl  -0xa048(%ebp)
    26b3:	e8 38 eb ff ff       	call   11f0 <close@plt>
    26b8:	83 c4 10             	add    $0x10,%esp
    26bb:	b8 ff ff ff ff       	mov    $0xffffffff,%eax
    26c0:	e9 3e 04 00 00       	jmp    2b03 <submitr+0x721>
    26c5:	83 ec 08             	sub    $0x8,%esp
    26c8:	68 00 20 00 00       	push   $0x2000
    26cd:	8d 85 e4 9f ff ff    	lea    -0x601c(%ebp),%eax
    26d3:	50                   	push   %eax
    26d4:	e8 37 e9 ff ff       	call   1010 <bzero@plt>
    26d9:	83 c4 10             	add    $0x10,%esp
    26dc:	83 ec 08             	sub    $0x8,%esp
    26df:	8d 85 e4 9f ff ff    	lea    -0x601c(%ebp),%eax
    26e5:	50                   	push   %eax
    26e6:	ff b5 94 5f ff ff    	pushl  -0xa06c(%ebp)
    26ec:	e8 76 fb ff ff       	call   2267 <urlencode>
    26f1:	83 c4 10             	add    $0x10,%esp
    26f4:	85 c0                	test   %eax,%eax
    26f6:	79 54                	jns    274c <submitr+0x36a>
    26f8:	8b 85 90 5f ff ff    	mov    -0xa070(%ebp),%eax
    26fe:	89 c2                	mov    %eax,%edx
    2700:	8d 83 20 dd ff ff    	lea    -0x22e0(%ebx),%eax
    2706:	b9 43 00 00 00       	mov    $0x43,%ecx
    270b:	8b 30                	mov    (%eax),%esi
    270d:	89 32                	mov    %esi,(%edx)
    270f:	8b 74 08 fc          	mov    -0x4(%eax,%ecx,1),%esi
    2713:	89 74 0a fc          	mov    %esi,-0x4(%edx,%ecx,1)
    2717:	8d 7a 04             	lea    0x4(%edx),%edi
    271a:	83 e7 fc             	and    $0xfffffffc,%edi
    271d:	29 fa                	sub    %edi,%edx
    271f:	29 d0                	sub    %edx,%eax
    2721:	01 d1                	add    %edx,%ecx
    2723:	83 e1 fc             	and    $0xfffffffc,%ecx
    2726:	c1 e9 02             	shr    $0x2,%ecx
    2729:	89 ca                	mov    %ecx,%edx
    272b:	89 c6                	mov    %eax,%esi
    272d:	89 d1                	mov    %edx,%ecx
    272f:	f3 a5                	rep movsl %ds:(%esi),%es:(%edi)
    2731:	83 ec 0c             	sub    $0xc,%esp
    2734:	ff b5 b8 5f ff ff    	pushl  -0xa048(%ebp)
    273a:	e8 b1 ea ff ff       	call   11f0 <close@plt>
    273f:	83 c4 10             	add    $0x10,%esp
    2742:	b8 ff ff ff ff       	mov    $0xffffffff,%eax
    2747:	e9 b7 03 00 00       	jmp    2b03 <submitr+0x721>
    274c:	83 ec 08             	sub    $0x8,%esp
    274f:	8d 85 e4 9f ff ff    	lea    -0x601c(%ebp),%eax
    2755:	50                   	push   %eax
    2756:	ff b5 98 5f ff ff    	pushl  -0xa068(%ebp)
    275c:	ff b5 9c 5f ff ff    	pushl  -0xa064(%ebp)
    2762:	ff b5 a0 5f ff ff    	pushl  -0xa060(%ebp)
    2768:	8d 83 64 dd ff ff    	lea    -0x229c(%ebx),%eax
    276e:	50                   	push   %eax
    276f:	8d 85 e4 7f ff ff    	lea    -0x801c(%ebp),%eax
    2775:	50                   	push   %eax
    2776:	e8 25 ea ff ff       	call   11a0 <sprintf@plt>
    277b:	83 c4 20             	add    $0x20,%esp
    277e:	83 ec 0c             	sub    $0xc,%esp
    2781:	8d 85 e4 7f ff ff    	lea    -0x801c(%ebp),%eax
    2787:	50                   	push   %eax
    2788:	e8 73 e9 ff ff       	call   1100 <strlen@plt>
    278d:	83 c4 10             	add    $0x10,%esp
    2790:	83 ec 04             	sub    $0x4,%esp
    2793:	50                   	push   %eax
    2794:	8d 85 e4 7f ff ff    	lea    -0x801c(%ebp),%eax
    279a:	50                   	push   %eax
    279b:	ff b5 b8 5f ff ff    	pushl  -0xa048(%ebp)
    27a1:	e8 4e fa ff ff       	call   21f4 <rio_writen>
    27a6:	83 c4 10             	add    $0x10,%esp
    27a9:	85 c0                	test   %eax,%eax
    27ab:	79 6d                	jns    281a <submitr+0x438>
    27ad:	8b 85 90 5f ff ff    	mov    -0xa070(%ebp),%eax
    27b3:	c7 00 45 72 72 6f    	movl   $0x6f727245,(%eax)
    27b9:	c7 40 04 72 3a 20 43 	movl   $0x43203a72,0x4(%eax)
    27c0:	c7 40 08 6c 69 65 6e 	movl   $0x6e65696c,0x8(%eax)
    27c7:	c7 40 0c 74 20 75 6e 	movl   $0x6e752074,0xc(%eax)
    27ce:	c7 40 10 61 62 6c 65 	movl   $0x656c6261,0x10(%eax)
    27d5:	c7 40 14 20 74 6f 20 	movl   $0x206f7420,0x14(%eax)
    27dc:	c7 40 18 77 72 69 74 	movl   $0x74697277,0x18(%eax)
    27e3:	c7 40 1c 65 20 74 6f 	movl   $0x6f742065,0x1c(%eax)
    27ea:	c7 40 20 20 74 68 65 	movl   $0x65687420,0x20(%eax)
    27f1:	c7 40 24 20 73 65 72 	movl   $0x72657320,0x24(%eax)
    27f8:	c7 40 28 76 65 72 00 	movl   $0x726576,0x28(%eax)
    27ff:	83 ec 0c             	sub    $0xc,%esp
    2802:	ff b5 b8 5f ff ff    	pushl  -0xa048(%ebp)
    2808:	e8 e3 e9 ff ff       	call   11f0 <close@plt>
    280d:	83 c4 10             	add    $0x10,%esp
    2810:	b8 ff ff ff ff       	mov    $0xffffffff,%eax
    2815:	e9 e9 02 00 00       	jmp    2b03 <submitr+0x721>
    281a:	83 ec 08             	sub    $0x8,%esp
    281d:	ff b5 b8 5f ff ff    	pushl  -0xa048(%ebp)
    2823:	8d 85 d8 5f ff ff    	lea    -0xa028(%ebp),%eax
    2829:	50                   	push   %eax
    282a:	e8 0c f8 ff ff       	call   203b <rio_readinitb>
    282f:	83 c4 10             	add    $0x10,%esp
    2832:	83 ec 04             	sub    $0x4,%esp
    2835:	68 00 20 00 00       	push   $0x2000
    283a:	8d 85 e4 7f ff ff    	lea    -0x801c(%ebp),%eax
    2840:	50                   	push   %eax
    2841:	8d 85 d8 5f ff ff    	lea    -0xa028(%ebp),%eax
    2847:	50                   	push   %eax
    2848:	e8 f6 f8 ff ff       	call   2143 <rio_readlineb>
    284d:	83 c4 10             	add    $0x10,%esp
    2850:	85 c0                	test   %eax,%eax
    2852:	0f 8f 81 00 00 00    	jg     28d9 <submitr+0x4f7>
    2858:	8b 85 90 5f ff ff    	mov    -0xa070(%ebp),%eax
    285e:	c7 00 45 72 72 6f    	movl   $0x6f727245,(%eax)
    2864:	c7 40 04 72 3a 20 43 	movl   $0x43203a72,0x4(%eax)
    286b:	c7 40 08 6c 69 65 6e 	movl   $0x6e65696c,0x8(%eax)
    2872:	c7 40 0c 74 20 75 6e 	movl   $0x6e752074,0xc(%eax)
    2879:	c7 40 10 61 62 6c 65 	movl   $0x656c6261,0x10(%eax)
    2880:	c7 40 14 20 74 6f 20 	movl   $0x206f7420,0x14(%eax)
    2887:	c7 40 18 72 65 61 64 	movl   $0x64616572,0x18(%eax)
    288e:	c7 40 1c 20 66 69 72 	movl   $0x72696620,0x1c(%eax)
    2895:	c7 40 20 73 74 20 68 	movl   $0x68207473,0x20(%eax)
    289c:	c7 40 24 65 61 64 65 	movl   $0x65646165,0x24(%eax)
    28a3:	c7 40 28 72 20 66 72 	movl   $0x72662072,0x28(%eax)
    28aa:	c7 40 2c 6f 6d 20 73 	movl   $0x73206d6f,0x2c(%eax)
    28b1:	c7 40 30 65 72 76 65 	movl   $0x65767265,0x30(%eax)
    28b8:	66 c7 40 34 72 00    	movw   $0x72,0x34(%eax)
    28be:	83 ec 0c             	sub    $0xc,%esp
    28c1:	ff b5 b8 5f ff ff    	pushl  -0xa048(%ebp)
    28c7:	e8 24 e9 ff ff       	call   11f0 <close@plt>
    28cc:	83 c4 10             	add    $0x10,%esp
    28cf:	b8 ff ff ff ff       	mov    $0xffffffff,%eax
    28d4:	e9 2a 02 00 00       	jmp    2b03 <submitr+0x721>
    28d9:	83 ec 0c             	sub    $0xc,%esp
    28dc:	8d 85 e4 df ff ff    	lea    -0x201c(%ebp),%eax
    28e2:	50                   	push   %eax
    28e3:	8d 85 b4 5f ff ff    	lea    -0xa04c(%ebp),%eax
    28e9:	50                   	push   %eax
    28ea:	8d 85 e4 bf ff ff    	lea    -0x401c(%ebp),%eax
    28f0:	50                   	push   %eax
    28f1:	8d 83 ae dd ff ff    	lea    -0x2252(%ebx),%eax
    28f7:	50                   	push   %eax
    28f8:	8d 85 e4 7f ff ff    	lea    -0x801c(%ebp),%eax
    28fe:	50                   	push   %eax
    28ff:	e8 4c e8 ff ff       	call   1150 <__isoc99_sscanf@plt>
    2904:	83 c4 20             	add    $0x20,%esp
    2907:	8b 85 b4 5f ff ff    	mov    -0xa04c(%ebp),%eax
    290d:	3d c8 00 00 00       	cmp    $0xc8,%eax
    2912:	0f 84 d8 00 00 00    	je     29f0 <submitr+0x60e>
    2918:	8b 85 b4 5f ff ff    	mov    -0xa04c(%ebp),%eax
    291e:	8d 95 e4 df ff ff    	lea    -0x201c(%ebp),%edx
    2924:	52                   	push   %edx
    2925:	50                   	push   %eax
    2926:	8d 83 c0 dd ff ff    	lea    -0x2240(%ebx),%eax
    292c:	50                   	push   %eax
    292d:	ff b5 90 5f ff ff    	pushl  -0xa070(%ebp)
    2933:	e8 68 e8 ff ff       	call   11a0 <sprintf@plt>
    2938:	83 c4 10             	add    $0x10,%esp
    293b:	83 ec 0c             	sub    $0xc,%esp
    293e:	ff b5 b8 5f ff ff    	pushl  -0xa048(%ebp)
    2944:	e8 a7 e8 ff ff       	call   11f0 <close@plt>
    2949:	83 c4 10             	add    $0x10,%esp
    294c:	b8 ff ff ff ff       	mov    $0xffffffff,%eax
    2951:	e9 ad 01 00 00       	jmp    2b03 <submitr+0x721>
    2956:	83 ec 04             	sub    $0x4,%esp
    2959:	68 00 20 00 00       	push   $0x2000
    295e:	8d 85 e4 7f ff ff    	lea    -0x801c(%ebp),%eax
    2964:	50                   	push   %eax
    2965:	8d 85 d8 5f ff ff    	lea    -0xa028(%ebp),%eax
    296b:	50                   	push   %eax
    296c:	e8 d2 f7 ff ff       	call   2143 <rio_readlineb>
    2971:	83 c4 10             	add    $0x10,%esp
    2974:	85 c0                	test   %eax,%eax
    2976:	7f 78                	jg     29f0 <submitr+0x60e>
    2978:	8b 85 90 5f ff ff    	mov    -0xa070(%ebp),%eax
    297e:	c7 00 45 72 72 6f    	movl   $0x6f727245,(%eax)
    2984:	c7 40 04 72 3a 20 43 	movl   $0x43203a72,0x4(%eax)
    298b:	c7 40 08 6c 69 65 6e 	movl   $0x6e65696c,0x8(%eax)
    2992:	c7 40 0c 74 20 75 6e 	movl   $0x6e752074,0xc(%eax)
    2999:	c7 40 10 61 62 6c 65 	movl   $0x656c6261,0x10(%eax)
    29a0:	c7 40 14 20 74 6f 20 	movl   $0x206f7420,0x14(%eax)
    29a7:	c7 40 18 72 65 61 64 	movl   $0x64616572,0x18(%eax)
    29ae:	c7 40 1c 20 68 65 61 	movl   $0x61656820,0x1c(%eax)
    29b5:	c7 40 20 64 65 72 73 	movl   $0x73726564,0x20(%eax)
    29bc:	c7 40 24 20 66 72 6f 	movl   $0x6f726620,0x24(%eax)
    29c3:	c7 40 28 6d 20 73 65 	movl   $0x6573206d,0x28(%eax)
    29ca:	c7 40 2c 72 76 65 72 	movl   $0x72657672,0x2c(%eax)
    29d1:	c6 40 30 00          	movb   $0x0,0x30(%eax)
    29d5:	83 ec 0c             	sub    $0xc,%esp
    29d8:	ff b5 b8 5f ff ff    	pushl  -0xa048(%ebp)
    29de:	e8 0d e8 ff ff       	call   11f0 <close@plt>
    29e3:	83 c4 10             	add    $0x10,%esp
    29e6:	b8 ff ff ff ff       	mov    $0xffffffff,%eax
    29eb:	e9 13 01 00 00       	jmp    2b03 <submitr+0x721>
    29f0:	83 ec 08             	sub    $0x8,%esp
    29f3:	8d 83 ed dd ff ff    	lea    -0x2213(%ebx),%eax
    29f9:	50                   	push   %eax
    29fa:	8d 85 e4 7f ff ff    	lea    -0x801c(%ebp),%eax
    2a00:	50                   	push   %eax
    2a01:	e8 aa e5 ff ff       	call   fb0 <strcmp@plt>
    2a06:	83 c4 10             	add    $0x10,%esp
    2a09:	85 c0                	test   %eax,%eax
    2a0b:	0f 85 45 ff ff ff    	jne    2956 <submitr+0x574>
    2a11:	83 ec 04             	sub    $0x4,%esp
    2a14:	68 00 20 00 00       	push   $0x2000
    2a19:	8d 85 e4 7f ff ff    	lea    -0x801c(%ebp),%eax
    2a1f:	50                   	push   %eax
    2a20:	8d 85 d8 5f ff ff    	lea    -0xa028(%ebp),%eax
    2a26:	50                   	push   %eax
    2a27:	e8 17 f7 ff ff       	call   2143 <rio_readlineb>
    2a2c:	83 c4 10             	add    $0x10,%esp
    2a2f:	85 c0                	test   %eax,%eax
    2a31:	7f 7f                	jg     2ab2 <submitr+0x6d0>
    2a33:	8b 85 90 5f ff ff    	mov    -0xa070(%ebp),%eax
    2a39:	c7 00 45 72 72 6f    	movl   $0x6f727245,(%eax)
    2a3f:	c7 40 04 72 3a 20 43 	movl   $0x43203a72,0x4(%eax)
    2a46:	c7 40 08 6c 69 65 6e 	movl   $0x6e65696c,0x8(%eax)
    2a4d:	c7 40 0c 74 20 75 6e 	movl   $0x6e752074,0xc(%eax)
    2a54:	c7 40 10 61 62 6c 65 	movl   $0x656c6261,0x10(%eax)
    2a5b:	c7 40 14 20 74 6f 20 	movl   $0x206f7420,0x14(%eax)
    2a62:	c7 40 18 72 65 61 64 	movl   $0x64616572,0x18(%eax)
    2a69:	c7 40 1c 20 73 74 61 	movl   $0x61747320,0x1c(%eax)
    2a70:	c7 40 20 74 75 73 20 	movl   $0x20737574,0x20(%eax)
    2a77:	c7 40 24 6d 65 73 73 	movl   $0x7373656d,0x24(%eax)
    2a7e:	c7 40 28 61 67 65 20 	movl   $0x20656761,0x28(%eax)
    2a85:	c7 40 2c 66 72 6f 6d 	movl   $0x6d6f7266,0x2c(%eax)
    2a8c:	c7 40 30 20 73 65 72 	movl   $0x72657320,0x30(%eax)
    2a93:	c7 40 34 76 65 72 00 	movl   $0x726576,0x34(%eax)
    2a9a:	83 ec 0c             	sub    $0xc,%esp
    2a9d:	ff b5 b8 5f ff ff    	pushl  -0xa048(%ebp)
    2aa3:	e8 48 e7 ff ff       	call   11f0 <close@plt>
    2aa8:	83 c4 10             	add    $0x10,%esp
    2aab:	b8 ff ff ff ff       	mov    $0xffffffff,%eax
    2ab0:	eb 51                	jmp    2b03 <submitr+0x721>
    2ab2:	83 ec 08             	sub    $0x8,%esp
    2ab5:	8d 85 e4 7f ff ff    	lea    -0x801c(%ebp),%eax
    2abb:	50                   	push   %eax
    2abc:	ff b5 90 5f ff ff    	pushl  -0xa070(%ebp)
    2ac2:	e8 c9 e5 ff ff       	call   1090 <strcpy@plt>
    2ac7:	83 c4 10             	add    $0x10,%esp
    2aca:	83 ec 0c             	sub    $0xc,%esp
    2acd:	ff b5 b8 5f ff ff    	pushl  -0xa048(%ebp)
    2ad3:	e8 18 e7 ff ff       	call   11f0 <close@plt>
    2ad8:	83 c4 10             	add    $0x10,%esp
    2adb:	83 ec 08             	sub    $0x8,%esp
    2ade:	8d 83 f0 dd ff ff    	lea    -0x2210(%ebx),%eax
    2ae4:	50                   	push   %eax
    2ae5:	ff b5 90 5f ff ff    	pushl  -0xa070(%ebp)
    2aeb:	e8 c0 e4 ff ff       	call   fb0 <strcmp@plt>
    2af0:	83 c4 10             	add    $0x10,%esp
    2af3:	85 c0                	test   %eax,%eax
    2af5:	75 07                	jne    2afe <submitr+0x71c>
    2af7:	b8 00 00 00 00       	mov    $0x0,%eax
    2afc:	eb 05                	jmp    2b03 <submitr+0x721>
    2afe:	b8 ff ff ff ff       	mov    $0xffffffff,%eax
    2b03:	8b 7d e4             	mov    -0x1c(%ebp),%edi
    2b06:	65 33 3d 14 00 00 00 	xor    %gs:0x14,%edi
    2b0d:	74 05                	je     2b14 <submitr+0x732>
    2b0f:	e8 2c 04 00 00       	call   2f40 <__stack_chk_fail_local>
    2b14:	8d 65 f4             	lea    -0xc(%ebp),%esp
    2b17:	5b                   	pop    %ebx
    2b18:	5e                   	pop    %esi
    2b19:	5f                   	pop    %edi
    2b1a:	5d                   	pop    %ebp
    2b1b:	c3                   	ret    

00002b1c <init_timeout>:
    2b1c:	55                   	push   %ebp
    2b1d:	89 e5                	mov    %esp,%ebp
    2b1f:	53                   	push   %ebx
    2b20:	83 ec 04             	sub    $0x4,%esp
    2b23:	e8 38 e7 ff ff       	call   1260 <__x86.get_pc_thunk.bx>
    2b28:	81 c3 14 34 00 00    	add    $0x3414,%ebx
    2b2e:	83 7d 08 00          	cmpl   $0x0,0x8(%ebp)
    2b32:	74 32                	je     2b66 <init_timeout+0x4a>
    2b34:	83 7d 08 00          	cmpl   $0x0,0x8(%ebp)
    2b38:	79 07                	jns    2b41 <init_timeout+0x25>
    2b3a:	c7 45 08 02 00 00 00 	movl   $0x2,0x8(%ebp)
    2b41:	83 ec 08             	sub    $0x8,%esp
    2b44:	8d 83 cf c0 ff ff    	lea    -0x3f31(%ebx),%eax
    2b4a:	50                   	push   %eax
    2b4b:	6a 0e                	push   $0xe
    2b4d:	e8 ce e4 ff ff       	call   1020 <signal@plt>
    2b52:	83 c4 10             	add    $0x10,%esp
    2b55:	8b 45 08             	mov    0x8(%ebp),%eax
    2b58:	83 ec 0c             	sub    $0xc,%esp
    2b5b:	50                   	push   %eax
    2b5c:	e8 cf e4 ff ff       	call   1030 <alarm@plt>
    2b61:	83 c4 10             	add    $0x10,%esp
    2b64:	eb 01                	jmp    2b67 <init_timeout+0x4b>
    2b66:	90                   	nop
    2b67:	8b 5d fc             	mov    -0x4(%ebp),%ebx
    2b6a:	c9                   	leave  
    2b6b:	c3                   	ret    

00002b6c <init_driver>:
    2b6c:	55                   	push   %ebp
    2b6d:	89 e5                	mov    %esp,%ebp
    2b6f:	53                   	push   %ebx
    2b70:	83 ec 44             	sub    $0x44,%esp
    2b73:	e8 e8 e6 ff ff       	call   1260 <__x86.get_pc_thunk.bx>
    2b78:	81 c3 c4 33 00 00    	add    $0x33c4,%ebx
    2b7e:	8b 45 08             	mov    0x8(%ebp),%eax
    2b81:	89 45 c4             	mov    %eax,-0x3c(%ebp)
    2b84:	65 a1 14 00 00 00    	mov    %gs:0x14,%eax
    2b8a:	89 45 f4             	mov    %eax,-0xc(%ebp)
    2b8d:	31 c0                	xor    %eax,%eax
    2b8f:	8d 83 f3 dd ff ff    	lea    -0x220d(%ebx),%eax
    2b95:	89 45 d4             	mov    %eax,-0x2c(%ebp)
    2b98:	c7 45 d8 80 60 00 00 	movl   $0x6080,-0x28(%ebp)
    2b9f:	83 ec 08             	sub    $0x8,%esp
    2ba2:	6a 01                	push   $0x1
    2ba4:	6a 0d                	push   $0xd
    2ba6:	e8 75 e4 ff ff       	call   1020 <signal@plt>
    2bab:	83 c4 10             	add    $0x10,%esp
    2bae:	83 ec 08             	sub    $0x8,%esp
    2bb1:	6a 01                	push   $0x1
    2bb3:	6a 1d                	push   $0x1d
    2bb5:	e8 66 e4 ff ff       	call   1020 <signal@plt>
    2bba:	83 c4 10             	add    $0x10,%esp
    2bbd:	83 ec 08             	sub    $0x8,%esp
    2bc0:	6a 01                	push   $0x1
    2bc2:	6a 1d                	push   $0x1d
    2bc4:	e8 57 e4 ff ff       	call   1020 <signal@plt>
    2bc9:	83 c4 10             	add    $0x10,%esp
    2bcc:	83 ec 04             	sub    $0x4,%esp
    2bcf:	6a 00                	push   $0x0
    2bd1:	6a 01                	push   $0x1
    2bd3:	6a 02                	push   $0x2
    2bd5:	e8 d6 e5 ff ff       	call   11b0 <socket@plt>
    2bda:	83 c4 10             	add    $0x10,%esp
    2bdd:	89 45 dc             	mov    %eax,-0x24(%ebp)
    2be0:	83 7d dc 00          	cmpl   $0x0,-0x24(%ebp)
    2be4:	79 51                	jns    2c37 <init_driver+0xcb>
    2be6:	8b 45 c4             	mov    -0x3c(%ebp),%eax
    2be9:	c7 00 45 72 72 6f    	movl   $0x6f727245,(%eax)
    2bef:	c7 40 04 72 3a 20 43 	movl   $0x43203a72,0x4(%eax)
    2bf6:	c7 40 08 6c 69 65 6e 	movl   $0x6e65696c,0x8(%eax)
    2bfd:	c7 40 0c 74 20 75 6e 	movl   $0x6e752074,0xc(%eax)
    2c04:	c7 40 10 61 62 6c 65 	movl   $0x656c6261,0x10(%eax)
    2c0b:	c7 40 14 20 74 6f 20 	movl   $0x206f7420,0x14(%eax)
    2c12:	c7 40 18 63 72 65 61 	movl   $0x61657263,0x18(%eax)
    2c19:	c7 40 1c 74 65 20 73 	movl   $0x73206574,0x1c(%eax)
    2c20:	c7 40 20 6f 63 6b 65 	movl   $0x656b636f,0x20(%eax)
    2c27:	66 c7 40 24 74 00    	movw   $0x74,0x24(%eax)
    2c2d:	b8 ff ff ff ff       	mov    $0xffffffff,%eax
    2c32:	e9 fc 00 00 00       	jmp    2d33 <init_driver+0x1c7>
    2c37:	83 ec 0c             	sub    $0xc,%esp
    2c3a:	ff 75 d4             	pushl  -0x2c(%ebp)
    2c3d:	e8 8e e5 ff ff       	call   11d0 <gethostbyname@plt>
    2c42:	83 c4 10             	add    $0x10,%esp
    2c45:	89 45 e0             	mov    %eax,-0x20(%ebp)
    2c48:	83 7d e0 00          	cmpl   $0x0,-0x20(%ebp)
    2c4c:	75 30                	jne    2c7e <init_driver+0x112>
    2c4e:	83 ec 04             	sub    $0x4,%esp
    2c51:	ff 75 d4             	pushl  -0x2c(%ebp)
    2c54:	8d 83 cc dc ff ff    	lea    -0x2334(%ebx),%eax
    2c5a:	50                   	push   %eax
    2c5b:	ff 75 c4             	pushl  -0x3c(%ebp)
    2c5e:	e8 3d e5 ff ff       	call   11a0 <sprintf@plt>
    2c63:	83 c4 10             	add    $0x10,%esp
    2c66:	83 ec 0c             	sub    $0xc,%esp
    2c69:	ff 75 dc             	pushl  -0x24(%ebp)
    2c6c:	e8 7f e5 ff ff       	call   11f0 <close@plt>
    2c71:	83 c4 10             	add    $0x10,%esp
    2c74:	b8 ff ff ff ff       	mov    $0xffffffff,%eax
    2c79:	e9 b5 00 00 00       	jmp    2d33 <init_driver+0x1c7>
    2c7e:	83 ec 08             	sub    $0x8,%esp
    2c81:	6a 10                	push   $0x10
    2c83:	8d 45 e4             	lea    -0x1c(%ebp),%eax
    2c86:	50                   	push   %eax
    2c87:	e8 84 e3 ff ff       	call   1010 <bzero@plt>
    2c8c:	83 c4 10             	add    $0x10,%esp
    2c8f:	66 c7 45 e4 02 00    	movw   $0x2,-0x1c(%ebp)
    2c95:	8b 45 e0             	mov    -0x20(%ebp),%eax
    2c98:	8b 40 0c             	mov    0xc(%eax),%eax
    2c9b:	89 c2                	mov    %eax,%edx
    2c9d:	8b 45 e0             	mov    -0x20(%ebp),%eax
    2ca0:	8b 40 10             	mov    0x10(%eax),%eax
    2ca3:	8b 00                	mov    (%eax),%eax
    2ca5:	83 ec 04             	sub    $0x4,%esp
    2ca8:	52                   	push   %edx
    2ca9:	8d 55 e4             	lea    -0x1c(%ebp),%edx
    2cac:	83 c2 04             	add    $0x4,%edx
    2caf:	52                   	push   %edx
    2cb0:	50                   	push   %eax
    2cb1:	e8 ca e3 ff ff       	call   1080 <bcopy@plt>
    2cb6:	83 c4 10             	add    $0x10,%esp
    2cb9:	8b 45 d8             	mov    -0x28(%ebp),%eax
    2cbc:	0f b7 c0             	movzwl %ax,%eax
    2cbf:	83 ec 0c             	sub    $0xc,%esp
    2cc2:	50                   	push   %eax
    2cc3:	e8 98 e3 ff ff       	call   1060 <htons@plt>
    2cc8:	83 c4 10             	add    $0x10,%esp
    2ccb:	66 89 45 e6          	mov    %ax,-0x1a(%ebp)
    2ccf:	83 ec 04             	sub    $0x4,%esp
    2cd2:	6a 10                	push   $0x10
    2cd4:	8d 45 e4             	lea    -0x1c(%ebp),%eax
    2cd7:	50                   	push   %eax
    2cd8:	ff 75 dc             	pushl  -0x24(%ebp)
    2cdb:	e8 00 e5 ff ff       	call   11e0 <connect@plt>
    2ce0:	83 c4 10             	add    $0x10,%esp
    2ce3:	85 c0                	test   %eax,%eax
    2ce5:	79 2d                	jns    2d14 <init_driver+0x1a8>
    2ce7:	ff 75 d8             	pushl  -0x28(%ebp)
    2cea:	ff 75 d4             	pushl  -0x2c(%ebp)
    2ced:	8d 83 08 de ff ff    	lea    -0x21f8(%ebx),%eax
    2cf3:	50                   	push   %eax
    2cf4:	ff 75 c4             	pushl  -0x3c(%ebp)
    2cf7:	e8 a4 e4 ff ff       	call   11a0 <sprintf@plt>
    2cfc:	83 c4 10             	add    $0x10,%esp
    2cff:	83 ec 0c             	sub    $0xc,%esp
    2d02:	ff 75 dc             	pushl  -0x24(%ebp)
    2d05:	e8 e6 e4 ff ff       	call   11f0 <close@plt>
    2d0a:	83 c4 10             	add    $0x10,%esp
    2d0d:	b8 ff ff ff ff       	mov    $0xffffffff,%eax
    2d12:	eb 1f                	jmp    2d33 <init_driver+0x1c7>
    2d14:	83 ec 0c             	sub    $0xc,%esp
    2d17:	ff 75 dc             	pushl  -0x24(%ebp)
    2d1a:	e8 d1 e4 ff ff       	call   11f0 <close@plt>
    2d1f:	83 c4 10             	add    $0x10,%esp
    2d22:	8b 45 c4             	mov    -0x3c(%ebp),%eax
    2d25:	66 c7 00 4f 4b       	movw   $0x4b4f,(%eax)
    2d2a:	c6 40 02 00          	movb   $0x0,0x2(%eax)
    2d2e:	b8 00 00 00 00       	mov    $0x0,%eax
    2d33:	8b 4d f4             	mov    -0xc(%ebp),%ecx
    2d36:	65 33 0d 14 00 00 00 	xor    %gs:0x14,%ecx
    2d3d:	74 05                	je     2d44 <init_driver+0x1d8>
    2d3f:	e8 fc 01 00 00       	call   2f40 <__stack_chk_fail_local>
    2d44:	8b 5d fc             	mov    -0x4(%ebp),%ebx
    2d47:	c9                   	leave  
    2d48:	c3                   	ret    

00002d49 <driver_post>:
    2d49:	55                   	push   %ebp
    2d4a:	89 e5                	mov    %esp,%ebp
    2d4c:	53                   	push   %ebx
    2d4d:	83 ec 14             	sub    $0x14,%esp
    2d50:	e8 09 ef ff ff       	call   1c5e <__x86.get_pc_thunk.ax>
    2d55:	05 e7 31 00 00       	add    $0x31e7,%eax
    2d5a:	83 7d 10 00          	cmpl   $0x0,0x10(%ebp)
    2d5e:	74 2a                	je     2d8a <driver_post+0x41>
    2d60:	83 ec 08             	sub    $0x8,%esp
    2d63:	ff 75 0c             	pushl  0xc(%ebp)
    2d66:	8d 90 31 de ff ff    	lea    -0x21cf(%eax),%edx
    2d6c:	52                   	push   %edx
    2d6d:	89 c3                	mov    %eax,%ebx
    2d6f:	e8 6c e2 ff ff       	call   fe0 <printf@plt>
    2d74:	83 c4 10             	add    $0x10,%esp
    2d77:	8b 45 14             	mov    0x14(%ebp),%eax
    2d7a:	66 c7 00 4f 4b       	movw   $0x4b4f,(%eax)
    2d7f:	c6 40 02 00          	movb   $0x0,0x2(%eax)
    2d83:	b8 00 00 00 00       	mov    $0x0,%eax
    2d88:	eb 5a                	jmp    2de4 <driver_post+0x9b>
    2d8a:	83 7d 08 00          	cmpl   $0x0,0x8(%ebp)
    2d8e:	74 43                	je     2dd3 <driver_post+0x8a>
    2d90:	8b 55 08             	mov    0x8(%ebp),%edx
    2d93:	0f b6 12             	movzbl (%edx),%edx
    2d96:	0f b6 d2             	movzbl %dl,%edx
    2d99:	85 d2                	test   %edx,%edx
    2d9b:	74 36                	je     2dd3 <driver_post+0x8a>
    2d9d:	83 ec 04             	sub    $0x4,%esp
    2da0:	ff 75 14             	pushl  0x14(%ebp)
    2da3:	ff 75 0c             	pushl  0xc(%ebp)
    2da6:	8d 90 48 de ff ff    	lea    -0x21b8(%eax),%edx
    2dac:	52                   	push   %edx
    2dad:	ff 75 08             	pushl  0x8(%ebp)
    2db0:	8d 90 4f de ff ff    	lea    -0x21b1(%eax),%edx
    2db6:	52                   	push   %edx
    2db7:	68 80 60 00 00       	push   $0x6080
    2dbc:	8d 80 f3 dd ff ff    	lea    -0x220d(%eax),%eax
    2dc2:	50                   	push   %eax
    2dc3:	e8 1a f6 ff ff       	call   23e2 <submitr>
    2dc8:	83 c4 20             	add    $0x20,%esp
    2dcb:	89 45 f4             	mov    %eax,-0xc(%ebp)
    2dce:	8b 45 f4             	mov    -0xc(%ebp),%eax
    2dd1:	eb 11                	jmp    2de4 <driver_post+0x9b>
    2dd3:	8b 45 14             	mov    0x14(%ebp),%eax
    2dd6:	66 c7 00 4f 4b       	movw   $0x4b4f,(%eax)
    2ddb:	c6 40 02 00          	movb   $0x0,0x2(%eax)
    2ddf:	b8 00 00 00 00       	mov    $0x0,%eax
    2de4:	8b 5d fc             	mov    -0x4(%ebp),%ebx
    2de7:	c9                   	leave  
    2de8:	c3                   	ret    

00002de9 <hash>:
    2de9:	55                   	push   %ebp
    2dea:	89 e5                	mov    %esp,%ebp
    2dec:	83 ec 10             	sub    $0x10,%esp
    2def:	e8 6a ee ff ff       	call   1c5e <__x86.get_pc_thunk.ax>
    2df4:	05 48 31 00 00       	add    $0x3148,%eax
    2df9:	c7 45 fc 00 00 00 00 	movl   $0x0,-0x4(%ebp)
    2e00:	eb 1a                	jmp    2e1c <hash+0x33>
    2e02:	8b 45 fc             	mov    -0x4(%ebp),%eax
    2e05:	6b c8 67             	imul   $0x67,%eax,%ecx
    2e08:	8b 45 08             	mov    0x8(%ebp),%eax
    2e0b:	8d 50 01             	lea    0x1(%eax),%edx
    2e0e:	89 55 08             	mov    %edx,0x8(%ebp)
    2e11:	0f b6 00             	movzbl (%eax),%eax
    2e14:	0f be c0             	movsbl %al,%eax
    2e17:	01 c8                	add    %ecx,%eax
    2e19:	89 45 fc             	mov    %eax,-0x4(%ebp)
    2e1c:	8b 45 08             	mov    0x8(%ebp),%eax
    2e1f:	0f b6 00             	movzbl (%eax),%eax
    2e22:	84 c0                	test   %al,%al
    2e24:	75 dc                	jne    2e02 <hash+0x19>
    2e26:	8b 45 fc             	mov    -0x4(%ebp),%eax
    2e29:	c9                   	leave  
    2e2a:	c3                   	ret    

00002e2b <check>:
    2e2b:	55                   	push   %ebp
    2e2c:	89 e5                	mov    %esp,%ebp
    2e2e:	83 ec 10             	sub    $0x10,%esp
    2e31:	e8 28 ee ff ff       	call   1c5e <__x86.get_pc_thunk.ax>
    2e36:	05 06 31 00 00       	add    $0x3106,%eax
    2e3b:	8b 45 08             	mov    0x8(%ebp),%eax
    2e3e:	c1 e8 1c             	shr    $0x1c,%eax
    2e41:	85 c0                	test   %eax,%eax
    2e43:	75 07                	jne    2e4c <check+0x21>
    2e45:	b8 00 00 00 00       	mov    $0x0,%eax
    2e4a:	eb 33                	jmp    2e7f <check+0x54>
    2e4c:	c7 45 fc 00 00 00 00 	movl   $0x0,-0x4(%ebp)
    2e53:	eb 1f                	jmp    2e74 <check+0x49>
    2e55:	8b 45 fc             	mov    -0x4(%ebp),%eax
    2e58:	8b 55 08             	mov    0x8(%ebp),%edx
    2e5b:	89 c1                	mov    %eax,%ecx
    2e5d:	d3 ea                	shr    %cl,%edx
    2e5f:	89 d0                	mov    %edx,%eax
    2e61:	0f b6 c0             	movzbl %al,%eax
    2e64:	83 f8 0a             	cmp    $0xa,%eax
    2e67:	75 07                	jne    2e70 <check+0x45>
    2e69:	b8 00 00 00 00       	mov    $0x0,%eax
    2e6e:	eb 0f                	jmp    2e7f <check+0x54>
    2e70:	83 45 fc 08          	addl   $0x8,-0x4(%ebp)
    2e74:	83 7d fc 1f          	cmpl   $0x1f,-0x4(%ebp)
    2e78:	7e db                	jle    2e55 <check+0x2a>
    2e7a:	b8 01 00 00 00       	mov    $0x1,%eax
    2e7f:	c9                   	leave  
    2e80:	c3                   	ret    

00002e81 <gencookie>:
    2e81:	55                   	push   %ebp
    2e82:	89 e5                	mov    %esp,%ebp
    2e84:	53                   	push   %ebx
    2e85:	83 ec 14             	sub    $0x14,%esp
    2e88:	e8 d3 e3 ff ff       	call   1260 <__x86.get_pc_thunk.bx>
    2e8d:	81 c3 af 30 00 00    	add    $0x30af,%ebx
    2e93:	ff 75 08             	pushl  0x8(%ebp)
    2e96:	e8 4e ff ff ff       	call   2de9 <hash>
    2e9b:	83 c4 04             	add    $0x4,%esp
    2e9e:	83 ec 0c             	sub    $0xc,%esp
    2ea1:	50                   	push   %eax
    2ea2:	e8 39 e2 ff ff       	call   10e0 <srand@plt>
    2ea7:	83 c4 10             	add    $0x10,%esp
    2eaa:	e8 d1 e2 ff ff       	call   1180 <rand@plt>
    2eaf:	89 45 f4             	mov    %eax,-0xc(%ebp)
    2eb2:	83 ec 0c             	sub    $0xc,%esp
    2eb5:	ff 75 f4             	pushl  -0xc(%ebp)
    2eb8:	e8 6e ff ff ff       	call   2e2b <check>
    2ebd:	83 c4 10             	add    $0x10,%esp
    2ec0:	85 c0                	test   %eax,%eax
    2ec2:	74 e6                	je     2eaa <gencookie+0x29>
    2ec4:	8b 45 f4             	mov    -0xc(%ebp),%eax
    2ec7:	8b 5d fc             	mov    -0x4(%ebp),%ebx
    2eca:	c9                   	leave  
    2ecb:	c3                   	ret    
    2ecc:	66 90                	xchg   %ax,%ax
    2ece:	66 90                	xchg   %ax,%ax

00002ed0 <__libc_csu_init>:
    2ed0:	55                   	push   %ebp
    2ed1:	57                   	push   %edi
    2ed2:	56                   	push   %esi
    2ed3:	53                   	push   %ebx
    2ed4:	e8 87 e3 ff ff       	call   1260 <__x86.get_pc_thunk.bx>
    2ed9:	81 c3 63 30 00 00    	add    $0x3063,%ebx
    2edf:	83 ec 0c             	sub    $0xc,%esp
    2ee2:	8b 6c 24 28          	mov    0x28(%esp),%ebp
    2ee6:	8d b3 04 ff ff ff    	lea    -0xfc(%ebx),%esi
    2eec:	e8 83 e0 ff ff       	call   f74 <_init>
    2ef1:	8d 83 00 ff ff ff    	lea    -0x100(%ebx),%eax
    2ef7:	29 c6                	sub    %eax,%esi
    2ef9:	c1 fe 02             	sar    $0x2,%esi
    2efc:	85 f6                	test   %esi,%esi
    2efe:	74 25                	je     2f25 <__libc_csu_init+0x55>
    2f00:	31 ff                	xor    %edi,%edi
    2f02:	8d b6 00 00 00 00    	lea    0x0(%esi),%esi
    2f08:	83 ec 04             	sub    $0x4,%esp
    2f0b:	55                   	push   %ebp
    2f0c:	ff 74 24 2c          	pushl  0x2c(%esp)
    2f10:	ff 74 24 2c          	pushl  0x2c(%esp)
    2f14:	ff 94 bb 00 ff ff ff 	call   *-0x100(%ebx,%edi,4)
    2f1b:	83 c7 01             	add    $0x1,%edi
    2f1e:	83 c4 10             	add    $0x10,%esp
    2f21:	39 fe                	cmp    %edi,%esi
    2f23:	75 e3                	jne    2f08 <__libc_csu_init+0x38>
    2f25:	83 c4 0c             	add    $0xc,%esp
    2f28:	5b                   	pop    %ebx
    2f29:	5e                   	pop    %esi
    2f2a:	5f                   	pop    %edi
    2f2b:	5d                   	pop    %ebp
    2f2c:	c3                   	ret    
    2f2d:	8d 76 00             	lea    0x0(%esi),%esi

00002f30 <__libc_csu_fini>:
    2f30:	f3 c3                	repz ret 
    2f32:	66 90                	xchg   %ax,%ax
    2f34:	66 90                	xchg   %ax,%ax
    2f36:	66 90                	xchg   %ax,%ax
    2f38:	66 90                	xchg   %ax,%ax
    2f3a:	66 90                	xchg   %ax,%ax
    2f3c:	66 90                	xchg   %ax,%ax
    2f3e:	66 90                	xchg   %ax,%ax

00002f40 <__stack_chk_fail_local>:
    2f40:	53                   	push   %ebx
    2f41:	e8 1a e3 ff ff       	call   1260 <__x86.get_pc_thunk.bx>
    2f46:	81 c3 f6 2f 00 00    	add    $0x2ff6,%ebx
    2f4c:	83 ec 08             	sub    $0x8,%esp
    2f4f:	e8 ec e0 ff ff       	call   1040 <__stack_chk_fail@plt>

Disassembly of section .fini:

00002f54 <_fini>:
    2f54:	53                   	push   %ebx
    2f55:	83 ec 08             	sub    $0x8,%esp
    2f58:	e8 03 e3 ff ff       	call   1260 <__x86.get_pc_thunk.bx>
    2f5d:	81 c3 df 2f 00 00    	add    $0x2fdf,%ebx
    2f63:	83 c4 08             	add    $0x8,%esp
    2f66:	5b                   	pop    %ebx
    2f67:	c3                   	ret    
